BL51 BANKED LINKER/LOCATER V6.22.2.0                                                    11/30/2021  16:22:28  PAGE 1


BL51 BANKED LINKER/LOCATER V6.22.2.0, INVOKED BY:
C:\KEIL_V5\C51\BIN\BL51.EXE ..\obj\uartdrv.obj, ..\obj\timer.obj, ..\obj\interrupt.obj, ..\obj\main.obj, ..\obj\sysutil.
>> obj, ..\obj\event.obj, ..\obj\STARTUP_OCELOT.obj, ..\obj\vtss_os.obj, ..\obj\i2c_h.obj, ..\obj\i2c.obj, ..\obj\txrxts
>> t.obj, ..\obj\h2flowc.obj, ..\obj\h2ioutil.obj, ..\obj\h2mactab.obj, ..\obj\h2txrx.obj, ..\obj\h2vlan.obj, ..\obj\h2.
>> obj, ..\obj\h2io.obj, ..\obj\h2fan.obj, ..\obj\h2eee.obj, ..\obj\h2pcs1g.obj, ..\obj\h2sdcfg.obj, ..\obj\h2stats.obj,
>>  ..\obj\h2gpios.obj, ..\obj\h2txrxaux.obj, ..\obj\h2aggr.obj, ..\obj\h2e2etc.obj, ..\obj\h2mailc.obj, ..\obj\h2tcam.o
>> bj, ..\obj\txt.obj, ..\obj\print.obj, ..\obj\clihnd.obj, ..\obj\txt_moredef.obj, ..\obj\phytsk.obj, ..\obj\phymap.obj
>> , ..\obj\phydrv.obj, ..\obj\veriphy.obj, ..\obj\phy_base.obj, ..\obj\phy_atom12.obj, ..\obj\phy_tesla.obj, ..\obj\phy
>> _elise.obj, ..\obj\phy_spyder.obj, ..\obj\phy_quattro.obj, ..\obj\phy_enzo.obj, ..\obj\phy_cobra.obj, ..\obj\version.
>> obj, ..\obj\hwport.obj, ..\obj\spiflash.obj, ..\obj\misc1.obj, ..\obj\misc2.obj, ..\obj\misc3.obj, ..\obj\lldp.obj, .
>> .\obj\lldp_os.obj, ..\obj\lldp_remote.obj, ..\obj\lldp_sm.obj, ..\obj\lldp_tlv.obj, ..\obj\mib_common.obj, ..\obj\vts
>> s_lacp.obj, ..\obj\eee.obj, ..\obj\eee_base.obj, ..\obj\fan.obj, ..\obj\ledtsk.obj, ..\obj\loopdet.obj TO ..\obj\Ferr
>> et_Unmanaged_F5_Develop PRINT (..\lst\Ferret_Unmanaged_F5_Develop.m51) RAMSIZE (256) OVERLAY (?PR?_H2_WRITE_MASKED?H2
>> IOUTIL ! *) CODE (0X0000-0XDFFF) XDATA (0XE000-0XFFFF)


MEMORY MODEL: LARGE WITH FLOATING POINT ARITHMETIC


INPUT MODULES INCLUDED:
  ..\obj\uartdrv.obj (UARTDRV)
  ..\obj\timer.obj (TIMER)
  ..\obj\interrupt.obj (INTERRUPT)
  ..\obj\main.obj (MAIN)
  ..\obj\sysutil.obj (SYSUTIL)
  ..\obj\event.obj (EVENT)
  ..\obj\STARTUP_OCELOT.obj (?C_STARTUP)
  ..\obj\vtss_os.obj (VTSS_OS)
  ..\obj\i2c_h.obj (I2C_H)
  ..\obj\i2c.obj (I2C)
  ..\obj\txrxtst.obj (TXRXTST)
  ..\obj\h2flowc.obj (H2FLOWC)
  ..\obj\h2ioutil.obj (H2IOUTIL)
  ..\obj\h2mactab.obj (H2MACTAB)
  ..\obj\h2txrx.obj (H2TXRX)
  ..\obj\h2vlan.obj (H2VLAN)
  ..\obj\h2.obj (H2)
  ..\obj\h2io.obj (H2IO)
  ..\obj\h2fan.obj (H2FAN)
  ..\obj\h2eee.obj (H2EEE)
  ..\obj\h2pcs1g.obj (H2PCS1G)
  ..\obj\h2sdcfg.obj (H2SDCFG)
  ..\obj\h2stats.obj (H2STATS)
  ..\obj\h2gpios.obj (H2GPIOS)
  ..\obj\h2txrxaux.obj (H2TXRXAUX)
  ..\obj\h2aggr.obj (H2AGGR)
  ..\obj\h2e2etc.obj (H2E2ETC)
  ..\obj\h2mailc.obj (H2MAILC)
  ..\obj\h2tcam.obj (H2TCAM)
  ..\obj\txt.obj (TXT)
  ..\obj\print.obj (PRINT)
  ..\obj\clihnd.obj (CLIHND)
  ..\obj\txt_moredef.obj (TXT_MOREDEF)
  ..\obj\phytsk.obj (PHYTSK)
  ..\obj\phymap.obj (PHYMAP)
  ..\obj\phydrv.obj (PHYDRV)
  ..\obj\veriphy.obj (VERIPHY)
  ..\obj\phy_base.obj (PHY_BASE)
BL51 BANKED LINKER/LOCATER V6.22.2.0                                                  11/30/2021  16:22:28  PAGE 2


  ..\obj\phy_atom12.obj (PHY_ATOM12)
  ..\obj\phy_tesla.obj (PHY_TESLA)
  ..\obj\phy_elise.obj (PHY_ELISE)
  ..\obj\phy_spyder.obj (PHY_SPYDER)
  ..\obj\phy_quattro.obj (PHY_QUATTRO)
  ..\obj\phy_enzo.obj (PHY_ENZO)
  ..\obj\phy_cobra.obj (PHY_COBRA)
  ..\obj\version.obj (VERSION)
  ..\obj\hwport.obj (HWPORT)
  ..\obj\spiflash.obj (SPIFLASH)
  ..\obj\misc1.obj (MISC1)
  ..\obj\misc2.obj (MISCUTIL2)
  ..\obj\misc3.obj (MISCUTIL3)
  ..\obj\lldp.obj (LLDP)
  ..\obj\lldp_os.obj (LLDP_OS)
  ..\obj\lldp_remote.obj (LLDP_REMOTE)
  ..\obj\lldp_sm.obj (LLDP_SM)
  ..\obj\lldp_tlv.obj (LLDP_TLV)
  ..\obj\mib_common.obj (MIB_COMMON)
  ..\obj\vtss_lacp.obj (VTSS_LACP)
  ..\obj\eee.obj (EEE)
  ..\obj\eee_base.obj (EEE_BASE)
  ..\obj\fan.obj (FAN)
  ..\obj\ledtsk.obj (LEDTSK)
  ..\obj\loopdet.obj (LOOPDET)
  C:\KEIL_V5\C51\LIB\C51FPL.LIB (?C?FPADD)
  C:\KEIL_V5\C51\LIB\C51FPL.LIB (?C?FPMUL)
  C:\KEIL_V5\C51\LIB\C51FPL.LIB (?C?FPDIV)
  C:\KEIL_V5\C51\LIB\C51FPL.LIB (?C?FCAST)
  C:\KEIL_V5\C51\LIB\C51FPL.LIB (?C?CASTF)
  C:\KEIL_V5\C51\LIB\C51FPL.LIB (?C?FPGETOPN)
  C:\KEIL_V5\C51\LIB\C51L.LIB (?C_INIT)
  C:\KEIL_V5\C51\LIB\C51L.LIB (?C?COPY)
  C:\KEIL_V5\C51\LIB\C51L.LIB (?C?SCDIV)
  C:\KEIL_V5\C51\LIB\C51L.LIB (?C?CLDPTR)
  C:\KEIL_V5\C51\LIB\C51L.LIB (?C?CLDOPTR)
  C:\KEIL_V5\C51\LIB\C51L.LIB (?C?CILDOPTR)
  C:\KEIL_V5\C51\LIB\C51L.LIB (?C?CSTPTR)
  C:\KEIL_V5\C51\LIB\C51L.LIB (?C?CSTOPTR)
  C:\KEIL_V5\C51\LIB\C51L.LIB (?C?IILDX)
  C:\KEIL_V5\C51\LIB\C51L.LIB (?C?ILDIX)
  C:\KEIL_V5\C51\LIB\C51L.LIB (?C?ILDOPTR)
  C:\KEIL_V5\C51\LIB\C51L.LIB (?C?ISTPTR)
  C:\KEIL_V5\C51\LIB\C51L.LIB (?C?LADD)
  C:\KEIL_V5\C51\LIB\C51L.LIB (?C?LSUB)
  C:\KEIL_V5\C51\LIB\C51L.LIB (?C?LMUL)
  C:\KEIL_V5\C51\LIB\C51L.LIB (?C?ULDIV)
  C:\KEIL_V5\C51\LIB\C51L.LIB (?C?LAND)
  C:\KEIL_V5\C51\LIB\C51L.LIB (?C?LOR)
  C:\KEIL_V5\C51\LIB\C51L.LIB (?C?LNOT)
  C:\KEIL_V5\C51\LIB\C51L.LIB (?C?LNEG)
  C:\KEIL_V5\C51\LIB\C51L.LIB (?C?ULCMP)
  C:\KEIL_V5\C51\LIB\C51L.LIB (?C?ULSHR)
  C:\KEIL_V5\C51\LIB\C51L.LIB (?C?LSHL)
  C:\KEIL_V5\C51\LIB\C51L.LIB (?C?LLDIDATA)
  C:\KEIL_V5\C51\LIB\C51L.LIB (?C?LLDXDATA)
  C:\KEIL_V5\C51\LIB\C51L.LIB (?C?LLDIDATA0)
BL51 BANKED LINKER/LOCATER V6.22.2.0                                                  11/30/2021  16:22:28  PAGE 3


  C:\KEIL_V5\C51\LIB\C51L.LIB (?C?LLDXDATA0)
  C:\KEIL_V5\C51\LIB\C51L.LIB (?C?LLDIXDATA)
  C:\KEIL_V5\C51\LIB\C51L.LIB (?C?LSTIDATA)
  C:\KEIL_V5\C51\LIB\C51L.LIB (?C?LSTXDATA)
  C:\KEIL_V5\C51\LIB\C51L.LIB (?C?LSTKXDATA)
  C:\KEIL_V5\C51\LIB\C51L.LIB (?C?OFFXADD)
  C:\KEIL_V5\C51\LIB\C51L.LIB (?C?PLDXDATA)
  C:\KEIL_V5\C51\LIB\C51L.LIB (?C?PLDIXDATA)
  C:\KEIL_V5\C51\LIB\C51L.LIB (?C?PSTXDATA)
  C:\KEIL_V5\C51\LIB\C51L.LIB (?C?CCASE)
  C:\KEIL_V5\C51\LIB\C51L.LIB (?C?LCASE)
  C:\KEIL_V5\C51\LIB\C51L.LIB (?C?LIMUL)
  C:\KEIL_V5\C51\LIB\C51L.LIB (STRLEN)
  C:\KEIL_V5\C51\LIB\C51L.LIB (?C?MEMSET)


LINK MAP OF MODULE:  ..\obj\Ferret_Unmanaged_F5_Develop (UARTDRV)


            TYPE    BASE      LENGTH    RELOCATION   SEGMENT NAME
            -----------------------------------------------------

            * * * * * * *   D A T A   M E M O R Y   * * * * * * *
            REG     0000H     0008H     ABSOLUTE     "REG BANK 0"
            REG     0008H     0008H     ABSOLUTE     "REG BANK 1"
            REG     0010H     0008H     ABSOLUTE     "REG BANK 2"
            DATA    0018H     0006H     UNIT         ?DT?TIMER
                    001EH     0002H                  *** GAP ***
            BIT     0020H.0   0000H.5   UNIT         ?BI?TIMER
            BIT     0020H.5   0000H.2   UNIT         _BIT_GROUP_
            BIT     0020H.7   0000H.1   UNIT         ?BI?UARTDRV
            BIT     0021H.0   0000H.1   UNIT         ?BI?PHYTSK
                    0021H.1   0000H.7                *** GAP ***
            DATA    0022H     0025H     UNIT         _DATA_GROUP_
            DATA    0047H     000CH     UNIT         ?DT?_H2_WRITE_MASKED?H2IOUTIL
            DATA    0053H     0004H     UNIT         ?DT?UARTDRV
            DATA    0057H     0004H     UNIT         ?DT?SPIFLASH
            IDATA   005BH     0020H     UNIT         ?ID?UARTDRV
            IDATA   007BH     0010H     UNIT         ?ID?CLIHND
            IDATA   008BH     0001H     UNIT         ?STACK

            * * * * * * *  X D A T A   M E M O R Y  * * * * * * *
                    0000H     E000H                  *** GAP ***
            XDATA   E000H     02C9H     UNIT         ?XD?TXT_MOREDEF
            XDATA   E2C9H     00E2H     UNIT         _XDATA_GROUP_
            XDATA   E3ABH     0044H     UNIT         ?XD?CLIHND
            XDATA   E3EFH     003FH     UNIT         ?XD?SPIFLASH
            XDATA   E42EH     0035H     UNIT         ?XD?PHYTSK
            XDATA   E463H     0022H     UNIT         ?XD?LEDTSK
            XDATA   E485H     0019H     UNIT         ?XD?H2STATS
            XDATA   E49EH     000BH     UNIT         ?XD?H2PCS1G
            XDATA   E4A9H     000BH     UNIT         ?XD?PHYMAP
            XDATA   E4B4H     0006H     UNIT         ?XD?VERSION
            XDATA   E4BAH     0004H     UNIT         ?XD?TIMER
            XDATA   E4BEH     0004H     UNIT         ?XD?MAIN
            XDATA   E4C2H     0002H     UNIT         ?XD?SYSUTIL
            XDATA   E4C4H     0001H     UNIT         ?XD?VTSS_OS
BL51 BANKED LINKER/LOCATER V6.22.2.0                                                  11/30/2021  16:22:28  PAGE 4


            XDATA   E4C5H     0001H     UNIT         ?XD?HWPORT

            * * * * * * *   C O D E   M E M O R Y   * * * * * * *
            CODE    0000H     0003H     ABSOLUTE     
            CODE    0003H     0003H     ABSOLUTE     
            CODE    0006H     000DH     UNIT         ?PR?H2IOUTIL
            CODE    0013H     0003H     ABSOLUTE     
            CODE    0016H     0E0FH     UNIT         ?PR?_H2_SD6G_CFG?H2SDCFG
            CODE    0E25H     08FCH     UNIT         ?PR?_FERRET_BUF_CONF_SET?H2
            CODE    1721H     08E6H     UNIT         ?C?LIB_CODE
            CODE    2007H     0590H     UNIT         ?CO?CLIHND
            CODE    2597H     049AH     UNIT         ?PR?_I2C_RX?I2C_H
            CODE    2A31H     0421H     UNIT         ?C_INITSEG
            CODE    2E52H     03FCH     UNIT         ?PR?_HANDLE_SERDES?PHYTSK
            CODE    324EH     0387H     UNIT         ?PR?__FERRET_PORT_FC_SETUP?H2FLOWC
            CODE    35D5H     0339H     UNIT         ?PR?_H2_SD1G_CFG?H2SDCFG
            CODE    390EH     02A3H     UNIT         ?CO?I2C_H
            CODE    3BB1H     0296H     UNIT         ?PR?HANDLE_COMMAND?CLIHND
            CODE    3E47H     025DH     UNIT         ?PR?__SETUP_MAC?H2
            CODE    40A4H     024EH     UNIT         ?PR?H2
            CODE    42F2H     021DH     UNIT         ?PR?_H2_MACTAB_RESULT?H2MACTAB
            CODE    450FH     020DH     UNIT         ?PR?_H2_PCS1G_CLAUSE_37_STATUS_GET?H2PCS1G
            CODE    471CH     01FCH     UNIT         ?PR?__SETUP_PCS?H2
            CODE    4918H     01F7H     UNIT         ?PR?_H2_MACTAB_SET?H2MACTAB
            CODE    4B0FH     01EBH     UNIT         ?PR?_HANDLE_PHY?PHYTSK
            CODE    4CFAH     01ACH     UNIT         ?PR?_PORT_INFO_FORMAT_OUTPUT?CLIHND
            CODE    4EA6H     019EH     UNIT         ?PR?__FERRET_PORT_RESET?H2
            CODE    5044H     019EH     UNIT         ?CO?PHYTSK
            CODE    51E2H     0189H     UNIT         ?PR?_H2_PCS1G_SETUP?H2PCS1G
            CODE    536BH     0177H     UNIT         PROG
            CODE    54E2H     0176H     UNIT         ?PR?_PRINT_PORT_STATISTICS?H2STATS
            CODE    5658H     0154H     UNIT         ?PR?RETRIEVE_PARMS?CLIHND
            CODE    57ACH     0151H     UNIT         ?PR?_H2_SGPIO_WRITE?H2GPIOS
            CODE    58FDH     0142H     UNIT         ?PR?_H2_PCS1G_100FX_STATUS_GET?H2PCS1G
            CODE    5A3FH     012AH     UNIT         ?PR?I2C_INIT?I2C_H
            CODE    5B69H     012AH     UNIT         ?PR?CLI_SHOW_PORT_INFO?CLIHND
            CODE    5C93H     0125H     UNIT         ?PR?H2PCS1G
            CODE    5DB8H     0109H     UNIT         ?PR?PHY_INIT?PHYTSK
            CODE    5EC1H     0101H     UNIT         ?PR?UART_INIT?UARTDRV
            CODE    5FC2H     00FBH     UNIT         ?PR?_CLI_SHOW_MAC_ADDR?CLIHND
            CODE    60BDH     00F9H     UNIT         ?PR?CMD_READY?CLIHND
            CODE    61B6H     00F8H     UNIT         ?PR?__SETUP_PORT?H2
            CODE    62AEH     00F1H     UNIT         ?PR?H2MACTAB
            CODE    639FH     00EAH     UNIT         ?PR?H2_INIT_PORTS?H2
            CODE    6489H     00E7H     UNIT         ?PR?_H2_GPIO_MODE_SET?H2GPIOS
            CODE    6570H     00E0H     UNIT         ?PR?_H2_PCS1G_CLAUSE_37_CONTROL_SET?H2PCS1G
            CODE    6650H     00DAH     UNIT         ?C_C51STARTUP
            CODE    672AH     00D3H     UNIT         ?PR?_I2C_SET_GPIO_ALT?I2C_H
            CODE    67FDH     00D1H     UNIT         ?PR?H2SDCFG
            CODE    68CEH     00C3H     UNIT         ?PR?_CMD_RETRIEVE_MAC_ADDR?CLIHND
            CODE    6991H     00C3H     UNIT         ?PR?_SFP_DETECT?PHYTSK
            CODE    6A54H     00C1H     UNIT         ?PR?_PHY_READ_ID?PHY_BASE
            CODE    6B15H     00BDH     UNIT         ?PR?H2_SGPIO_ENABLE?H2GPIOS
            CODE    6BD2H     00BDH     UNIT         ?PR?CLI_SHOW_HELP_MSG?CLIHND
            CODE    6C8FH     00BDH     UNIT         ?PR?_SERDES_LINK_MODE_GET?PHYTSK
            CODE    6D4CH     00B4H     UNIT         ?PR?I2C_H
            CODE    6E00H     00B4H     UNIT         ?PR?CLIHND
BL51 BANKED LINKER/LOCATER V6.22.2.0                                                  11/30/2021  16:22:28  PAGE 5


            CODE    6EB4H     00B2H     UNIT         ?PR?_H2_MACTAB_AGE?H2MACTAB
            CODE    6F66H     00B1H     UNIT         ?PR?_H2_PCS1G_2_5G_LINK_STATUS_GET?H2PCS1G
            CODE    7017H     00AEH     UNIT         ?PR?H2_SERDES_MACRO_PHASE_LOOP_LOCKED?H2SDCFG
            CODE    70C5H     00ADH     UNIT         ?PR?_CMP_CMD_TXT?TXT
            CODE    7172H     00ADH     UNIT         ?PR?PHY_HW_INIT?HWPORT
            CODE    721FH     00ACH     UNIT         ?PR?PHYTSK
            CODE    72CBH     00ABH     UNIT         ?PR?CLI_SHOW_SW_VER?CLIHND
            CODE    7376H     00AAH     UNIT         ?PR?__LED_MODE_SET?LEDTSK
            CODE    7420H     00A7H     UNIT         ?PR?_PHY_RECEIVER_RECONFIG?PHYDRV
            CODE    74C7H     00A4H     UNIT         ?PR?_I2C_SET_TAR_REGISTER?I2C_H
            CODE    756BH     00A2H     UNIT         ?PR?_PRINT_DEC_32?PRINT
            CODE    760DH     009DH     UNIT         ?PR?H2_POST_RESET?H2
            CODE    76AAH     009CH     UNIT         ?PR?_I2C_TX?I2C_H
            CODE    7746H     009CH     UNIT         ?PR?GET_HW_VERSION?HWPORT
            CODE    77E2H     009AH     UNIT         ?PR?_H2_STATS_COUNTER_GET?H2STATS
            CODE    787CH     0098H     UNIT         ?PR?MAIN?MAIN
            CODE    7914H     0097H     UNIT         ?PR?_PRINT_PHY_MODEL_2_TXT?CLIHND
            CODE    79ABH     0093H     UNIT         ?PR?TIMER_1_INIT?TIMER
            CODE    7A3EH     008FH     UNIT         ?PR?UART_INTERRUPT?UARTDRV
            CODE    7ACDH     008DH     UNIT         ?PR?H2GPIOS
            CODE    7B5AH     008DH     UNIT         ?PR?RETRIEVE_STR_PARMS?CLIHND
            CODE    7BE7H     008DH     UNIT         ?PR?__PHY_READ_REG_DATA?PHYDRV
            CODE    7C74H     008AH     UNIT         ?CO?SYSUTIL
            CODE    7CFEH     008AH     UNIT         ?PR?_H2_PCS1G_CLOCK_SET?H2PCS1G
            CODE    7D88H     0085H     UNIT         ?CO?H2STATS
            CODE    7E0DH     0081H     UNIT         ?CO?PRINT
            CODE    7E8EH     0080H     UNIT         ?PR?__H2_STATS_COUNTER_GET_PRIVATE?H2STATS
            CODE    7F0EH     007FH     UNIT         ?PR?HANDLE_SYS_CONFIG?CLIHND
            CODE    7F8DH     007DH     UNIT         ?PR?SYSUTIL_SHOW_CHIP_ID?SYSUTIL
            CODE    800AH     007BH     UNIT         ?PR?_PRINT_PORT_LIST?PRINT
            CODE    8085H     007BH     UNIT         ?PR?_LED_UPDATE_PORT_BY_TOWER_MODE?LEDTSK
            CODE    8100H     007AH     UNIT         ?PR?PHY_TSK_INIT?PHYTSK
            CODE    817AH     0076H     UNIT         ?PR?_PRINT_DEC?PRINT
            CODE    81F0H     0071H     UNIT         ?PR?_PHY_WRITE?PHYDRV
            CODE    8261H     006FH     UNIT         ?PR?_PHY_STATE_TO_SETUP?PHYTSK
            CODE    82D0H     0068H     UNIT         ?PR?EXT_1_INTERRUPT?INTERRUPT
            CODE    8338H     0068H     UNIT         ?PR?EXT_0_INTERRUPT?INTERRUPT
            CODE    83A0H     0067H     UNIT         ?PR?_PHY_LINK_MODE_GET?PHYTSK
            CODE    8407H     0066H     UNIT         ?PR?CLI_TSK?CLIHND
            CODE    846DH     0061H     UNIT         ?PR?_SFP_I2C_READ?PHYTSK
            CODE    84CEH     005EH     UNIT         ?PR?_PRINT_BINARY_32?PRINT
            CODE    852CH     005EH     UNIT         ?PR?_FLASH_WRITE_MAC_ADDR?SPIFLASH
            CODE    858AH     005CH     UNIT         ?PR?PHYDRV
            CODE    85E6H     0059H     UNIT         ?PR?_H2_MACTAB_GET_NEXT?H2MACTAB
            CODE    863FH     0057H     UNIT         ?PR?_TX_I2C_DATA?I2C_H
            CODE    8696H     0054H     UNIT         ?PR?_PHY_MMD_RD?PHYDRV
            CODE    86EAH     0052H     UNIT         ?PR?_UART_PUT_BYTE?UARTDRV
            CODE    873CH     004BH     UNIT         ?PR?PRINT
            CODE    8787H     0049H     UNIT         ?PR?_PHY_DO_LINK_UP_SETTINGS?PHYDRV
            CODE    87D0H     0045H     UNIT         ?PR?_PRINT_PARSE_INFO_32?PRINT
            CODE    8815H     0045H     UNIT         ?PR?_PHY_INIT_STATE?PHYTSK
            CODE    885AH     0045H     UNIT         ?PR?PHY_TSK?PHYTSK
            CODE    889FH     0044H     UNIT         ?PR?_H2_WRITE_MASKED?H2IOUTIL
            CODE    88E3H     0044H     UNIT         ?PR?_GET_MAC_ADDR?HWPORT
            CODE    8927H     003FH     UNIT         ?PR?_H2_SETUP_FLOW_CONTROL?H2FLOWC
            CODE    8966H     003FH     UNIT         ?PR?H2FLOWC
            CODE    89A5H     003EH     UNIT         ?PR?__H2_VLAN_DO_COMMAND?H2VLAN
BL51 BANKED LINKER/LOCATER V6.22.2.0                                                  11/30/2021  16:22:28  PAGE 6


            CODE    89E3H     003EH     UNIT         ?PR?_H2_GPIO_READ?H2GPIOS
            CODE    8A21H     003EH     UNIT         ?CO?TXT
            CODE    8A5FH     003CH     UNIT         ?CO?H2
            CODE    8A9BH     003CH     UNIT         ?PR?_PRINT_MAC_ADDR?PRINT
            CODE    8AD7H     003CH     UNIT         ?CO?VERSION
            CODE    8B13H     003BH     UNIT         ?PR?_H2_ENABLE_EXC_COL_DROP?H2
            CODE    8B4EH     0039H     UNIT         ?PR?_PHY_MAP_SERDES_IF_RESTORE?PHYMAP
            CODE    8B87H     0037H     UNIT         ?PR?TIMER_1_INTERRUPT?TIMER
            CODE    8BBEH     0035H     UNIT         ?PR?_WRITE_MACDATA_REG?H2MACTAB
            CODE    8BF3H     0035H     UNIT         ?PR?_PRINT_N_STR?PRINT
            CODE    8C28H     0034H     UNIT         ?PR?_DO_MACTAB_CMD?H2MACTAB
            CODE    8C5CH     0033H     UNIT         ?PR?_PRINT_TXT?TXT
            CODE    8C8FH     0033H     UNIT         ?PR?_DO_LINK_DOWN?PHYTSK
            CODE    8CC2H     0032H     UNIT         ?PR?_BUILD_MACHDATA?H2MACTAB
            CODE    8CF4H     0032H     UNIT         ?PR?_H2_SD1G_READ?H2SDCFG
            CODE    8D26H     0032H     UNIT         ?PR?_H2_GPIO_WRITE?H2GPIOS
            CODE    8D58H     0031H     UNIT         ?PR?WAIT_FOR_TX_BUFFER_EMPTY?I2C_H
            CODE    8D89H     0031H     UNIT         ?PR?_H2_SD6G_READ?H2SDCFG
            CODE    8DBAH     002FH     UNIT         ?PR?_PRINT_TXT_LEFT?TXT
            CODE    8DE9H     002EH     UNIT         ?PR?_PHY_WRITE_MASKED?PHYDRV
            CODE    8E17H     002DH     UNIT         ?PR?_H2_SD1G_WRITE?H2SDCFG
            CODE    8E44H     002DH     UNIT         ?PR?_DO_LINK_UP?PHYTSK
            CODE    8E71H     002DH     UNIT         ?PR?PHY_CHECK_ALL?PHYTSK
            CODE    8E9EH     002CH     UNIT         ?PR?_H2_SD6G_WRITE?H2SDCFG
            CODE    8ECAH     002CH     UNIT         ?PR?_SERDES_PORT_SFP_DETECT?PHYTSK
            CODE    8EF6H     002BH     UNIT         ?PR?_BUILD_MACLDATA?H2MACTAB
            CODE    8F21H     002BH     UNIT         ?PR?_PHY_MAP_SERDES?PHYMAP
            CODE    8F4CH     0028H     UNIT         ?PR?_PHY_AWAIT_COMPLETED?PHYDRV
            CODE    8F74H     0027H     UNIT         ?PR?_PRINT_DEC_8_RIGHT_2?PRINT
            CODE    8F9BH     0027H     UNIT         ?PR?_ASCII_TO_HEX_NIB?MISC1
            CODE    8FC2H     0026H     UNIT         ?PR?SYSUTIL_HANG?SYSUTIL
            CODE    8FE8H     0025H     UNIT         ?PR?HANDLE_TIMEOUT_EVENT_1SEC?MAIN
            CODE    900DH     0025H     UNIT         ?PR?PHY_BASE
            CODE    9032H     0024H     UNIT         ?CO?MAIN
            CODE    9056H     0024H     UNIT         ?PR?SYSUTIL_SHOW_SW_VER?SYSUTIL
            CODE    907AH     0023H     UNIT         ?PR?H2_MACTAB_AGETIME_SET?H2MACTAB
            CODE    909DH     0023H     UNIT         ?PR?_CONV_TO_UPPER_CASE?MISC1
            CODE    90C0H     0022H     UNIT         ?PR?_H2_MAC_TYPE?H2MACTAB
            CODE    90E2H     0022H     UNIT         ?PR?_PHY_READ?PHYDRV
            CODE    9104H     0021H     UNIT         ?PR?_H2_SETUP_PORT?H2
            CODE    9125H     0021H     UNIT         ?CO?PHYMAP
            CODE    9146H     0020H     UNIT         ?PR?LED_INIT?LEDTSK
            CODE    9166H     001FH     UNIT         ?PR?_PHY_DO_LINK_DOWN_SETTINGS?PHYDRV
            CODE    9185H     001FH     UNIT         ?PR?_UPORT2CPORT?HWPORT
            CODE    91A4H     001EH     UNIT         ?PR?H2_SERDES_MACRO_CONFIG?H2SDCFG
            CODE    91C2H     001EH     UNIT         ?PR?TXT
            CODE    91E0H     001DH     UNIT         ?PR?_PRINT_HEX_B?PRINT
            CODE    91FDH     001DH     UNIT         ?PR?_PRINT_HEX_DW?PRINT
            CODE    921AH     001DH     UNIT         ?PR?_PRINT_LINE?PRINT
            CODE    9237H     001DH     UNIT         ?PR?LED_1S_TIMER?LEDTSK
            CODE    9254H     001CH     UNIT         ?PR?_WM_ENC?H2FLOWC
            CODE    9270H     001CH     UNIT         ?PR?_IS_IPMC_ENTRY?H2MACTAB
            CODE    928CH     001CH     UNIT         ?PR?_WM_ENC?H2
            CODE    92A8H     001CH     UNIT         ?PR?SFP_INIT?PHYTSK
            CODE    92C4H     001BH     UNIT         ?PR?__PORT_RESET?H2
            CODE    92DFH     001BH     UNIT         ?PR?_PRINT_STR?PRINT
            CODE    92FAH     001AH     UNIT         ?PR?_H2_STATS_COUNTER_CLEAR?H2STATS
BL51 BANKED LINKER/LOCATER V6.22.2.0                                                  11/30/2021  16:22:28  PAGE 7


            CODE    9314H     0019H     UNIT         ?PR?_PRINT_HEX_W?PRINT
            CODE    932DH     0019H     UNIT         ?PR?_PHY_GET_SPEED_AND_FDX?PHYDRV
            CODE    9346H     0018H     UNIT         ?PR?_DELAY_1?TIMER
            CODE    935EH     0018H     UNIT         ?PR?H2_CHIP_RESET?H2
            CODE    9376H     0017H     UNIT         ?PR?_IS_IPV6MC_ENTRY?H2MACTAB
            CODE    938DH     0015H     UNIT         ?PR?UARTDRV
            CODE    93A2H     0015H     UNIT         ?PR?_H2_MACTAB_FLUSH_PORT?H2MACTAB
            CODE    93B7H     0015H     UNIT         ?PR?_TXT_LEN?TXT
            CODE    93CCH     0015H     UNIT         ?PR?_PRINT_SPACES?PRINT
            CODE    93E1H     0015H     UNIT         ?PR?_PHY_MAP?PHYMAP
            CODE    93F6H     0015H     UNIT         ?PR?FLASH_LOAD_CONFIG?SPIFLASH
            CODE    940BH     0015H     UNIT         ?PR?LED_TSK?LEDTSK
            CODE    9420H     0015H     UNIT         ?PR?_STRLEN?STRLEN
            CODE    9435H     0014H     UNIT         ?PR?PHY_TIMER_10?PHYTSK
            CODE    9449H     0014H     UNIT         ?PR?PHYMAP
            CODE    945DH     0014H     UNIT         ?PR?_PHY_RESTART_ANEG?PHYDRV
            CODE    9471H     0014H     UNIT         ?PR?_CPORT2UPORT?HWPORT
            CODE    9485H     0013H     UNIT         ?PR?H2_RESET?H2
            CODE    9498H     0013H     UNIT         ?PR?_H2_SD6G_CFG_CHANGE?H2SDCFG
            CODE    94ABH     0013H     UNIT         ?PR?_HEX_TO_ASCII_NIB?MISC1
            CODE    94BEH     0012H     UNIT         ?PR?SYSUTIL_SHOW_COMPILE_DATE?SYSUTIL
            CODE    94D0H     0012H     UNIT         ?PR?SYSUTIL_SHOW_HW_VER?SYSUTIL
            CODE    94E2H     0012H     UNIT         ?PR?_PRINT_PORT_MAC_ADDR?PRINT
            CODE    94F4H     0011H     UNIT         ?PR?INTERRUPT
            CODE    9505H     0011H     UNIT         ?PR?_CLI_CSI_PREFIX?CLIHND
            CODE    9516H     0010H     UNIT         ?CO?HWPORT
            CODE    9526H     000FH     UNIT         ?PR?UART_GET_BYTE?UARTDRV
            CODE    9535H     000FH     UNIT         ?PR?_PHY_MAP_PHY_NO?PHYMAP
            CODE    9544H     000EH     UNIT         ?PR?_IS_PORT_LINK?PHYTSK
            CODE    9552H     000EH     UNIT         ?PR?_PHY_MAP_MIIM_NO?PHYMAP
            CODE    9560H     000DH     UNIT         ?PR?_PRINT_DEC_RIGHT?PRINT
            CODE    956DH     000DH     UNIT         ?PR?SKIP_SPACES?CLIHND
            CODE    957AH     000DH     UNIT         ?PR?_PHY_LINK_STATUS?PHYDRV
            CODE    9587H     000CH     UNIT         ?PR?ERROR_CHECK?MAIN
            CODE    9593H     000CH     UNIT         ?PR?HANDLE_TIMEOUT_EVENT_10MS?MAIN
            CODE    959FH     000BH     UNIT         ?PR?H2_VLAN_CLEAR_TAB?H2VLAN
            CODE    95AAH     000BH     UNIT         ?PR?__SFP_TX_DISABLE_SET?PHYTSK
            CODE    95B5H     000BH     UNIT         ?PR?_PHY_MAP_SERDES_IF_UPDATE?PHYMAP
            CODE    95C0H     000AH     UNIT         ?PR?UART_BYTE_READY?UARTDRV
            CODE    95CAH     000AH     UNIT         ?PR?_DELAY?TIMER
            CODE    95D4H     000AH     UNIT         ?PR?SYSUTIL
            CODE    95DEH     000AH     UNIT         ?PR?H2STATS
            CODE    95E8H     000AH     UNIT         ?PR?PRINT_HEX_PREFIX?PRINT
            CODE    95F2H     000AH     UNIT         ?PR?PRINT_CR_LF?PRINT
            CODE    95FCH     000AH     UNIT         ?PR?CLI_BACKSPACE?CLIHND
            CODE    9606H     000AH     UNIT         ?PR?_PHY_PRE_RESET?PHYDRV
            CODE    9610H     000AH     UNIT         ?PR?_PHY_POST_RESET?PHYDRV
            CODE    961AH     000AH     UNIT         ?PR?_PHY_SETUP?PHYDRV
            CODE    9624H     0009H     UNIT         ?PR?EXT_INTERRUPT_INIT?INTERRUPT
            CODE    962DH     0009H     UNIT         ?PR?HANDLE_TIMEOUT_EVENT_100MS?MAIN
            CODE    9636H     0009H     UNIT         ?PR?_PORT_LINK_MODE_GET?PHYTSK
            CODE    963FH     0009H     UNIT         ?PR?_PHY_PAGE_TP?PHYDRV
            CODE    9648H     0009H     UNIT         ?PR?_PHY_PAGE_TR?PHYDRV
            CODE    9651H     0009H     UNIT         ?PR?LEDTSK
            CODE    965AH     0008H     UNIT         ?PR?SYSUTIL_REBOOT?SYSUTIL
            CODE    9662H     0008H     UNIT         ?PR?H2_MACTAB_CLEAR?H2MACTAB
            CODE    966AH     0008H     UNIT         ?PR?_PHY_PAGE_STD?PHYDRV
BL51 BANKED LINKER/LOCATER V6.22.2.0                                                  11/30/2021  16:22:28  PAGE 8


            CODE    9672H     0007H     UNIT         ?PR?_START_TIMER?TIMER
            CODE    9679H     0007H     UNIT         ?PR?TIMER
            CODE    9680H     0007H     UNIT         ?PR?HWPORT
            CODE    9687H     0007H     UNIT         ?PR?_FLASH_READ_MAC_ADDR?SPIFLASH
            CODE    968EH     0007H     UNIT         ?PR?LED_REFRESH?LEDTSK
            CODE    9695H     0007H     UNIT         ?PR?_LED_UPDATE_SYSTEM?LEDTSK
            CODE    969CH     0006H     UNIT         ?PR?_SYSUTIL_ASSERT_EVENT_SET?SYSUTIL
            CODE    96A2H     0006H     UNIT         ?PR?SYSUTIL_ASSERT_EVENT_GET?SYSUTIL
            CODE    96A8H     0006H     UNIT         ?PR?_SYSUTIL_SET_SUSPEND?SYSUTIL
            CODE    96AEH     0006H     UNIT         ?PR?SYSUTIL_GET_SUSPEND?SYSUTIL
            CODE    96B4H     0006H     UNIT         ?PR?_PRINTLN_STR?PRINT
            CODE    96BAH     0006H     UNIT         ?PR?_PHY_FLOWCONTROL_GET?PHYTSK
            CODE    96C0H     0006H     UNIT         ?PR?_PHY_FLOWCONTROL_SET?PHYTSK
            CODE    96C6H     0006H     UNIT         ?PR?_PHY_POWER_DOWN?PHYDRV
            CODE    96CCH     0004H     UNIT         ?PR?TIMEOUT?TIMER
            CODE    96D0H     0003H     UNIT         ?PR?_CALLBACK_LINK_UP?EVENT
            CODE    96D3H     0003H     UNIT         ?PR?_CALLBACK_LINK_DOWN?EVENT
            CODE    96D6H     0003H     UNIT         ?PR?_PRINT_CH?PRINT
            CODE    96D9H     0003H     UNIT         ?PR?GPIO_INIT?HWPORT
            CODE    96DCH     0001H     UNIT         ?PR?_H2_SETUP_CPU_IF?H2
            CODE    96DDH     0001H     UNIT         ?PR?VTSS_UPDATE_MASKS?H2



OVERLAY MAP OF MODULE:   ..\obj\Ferret_Unmanaged_F5_Develop (UARTDRV)


SEGMENT                                             BIT_GROUP          DATA_GROUP          XDATA_GROUP
  +--> CALLED SEGMENT                            START    LENGTH     START    LENGTH     START    LENGTH
--------------------------------------------------------------------------------------------------------
?PR?EXT_1_INTERRUPT?INTERRUPT                    -----    -----      0022H    0004H      -----    -----
  +--> ?PR?INTERRUPT
  +--> ?PR?UART_INTERRUPT?UARTDRV
  +--> ?PR?_H2_WRITE_MASKED?H2IOUTIL

?PR?UART_INTERRUPT?UARTDRV                       -----    -----      0026H    0004H      -----    -----
  +--> ?PR?UARTDRV

?PR?_H2_WRITE_MASKED?H2IOUTIL                    -----    -----      -----    -----      -----    -----
  +--> ?PR?H2IOUTIL

*** NEW ROOT ***************************************************

?PR?EXT_0_INTERRUPT?INTERRUPT                    -----    -----      002AH    0004H      -----    -----
  +--> ?PR?INTERRUPT
  +--> ?PR?TIMER_1_INTERRUPT?TIMER
  +--> ?PR?_H2_WRITE_MASKED?H2IOUTIL

*** NEW ROOT ***************************************************

?C_C51STARTUP                                    -----    -----      -----    -----      -----    -----
  +--> ?PR?MAIN?MAIN
  +--> ?C_INITSEG

?PR?MAIN?MAIN                                    -----    -----      -----    -----      E2C9H    0001H
  +--> ?PR?GET_HW_VERSION?HWPORT
  +--> ?PR?TIMER_1_INIT?TIMER
BL51 BANKED LINKER/LOCATER V6.22.2.0                                                  11/30/2021  16:22:28  PAGE 9


  +--> ?PR?UART_INIT?UARTDRV
  +--> ?PR?EXT_INTERRUPT_INIT?INTERRUPT
  +--> ?PR?_DELAY_1?TIMER
  +--> ?PR?PRINT_CR_LF?PRINT
  +--> ?PR?SYSUTIL_SHOW_CHIP_ID?SYSUTIL
  +--> ?PR?SYSUTIL_SHOW_SW_VER?SYSUTIL
  +--> ?PR?SYSUTIL_SHOW_COMPILE_DATE?SYSUTIL
  +--> ?PR?SYSUTIL_SHOW_HW_VER?SYSUTIL
  +--> ?PR?H2_POST_RESET?H2
  +--> ?PR?GPIO_INIT?HWPORT
  +--> ?PR?FLASH_LOAD_CONFIG?SPIFLASH
  +--> ?PR?SYSUTIL_ASSERT_EVENT_GET?SYSUTIL
  +--> ?PR?SYSUTIL_HANG?SYSUTIL
  +--> ?PR?PHY_HW_INIT?HWPORT
  +--> ?PR?H2_INIT_PORTS?H2
  +--> ?PR?PHY_TSK_INIT?PHYTSK
  +--> ?PR?LED_INIT?LEDTSK
  +--> ?PR?I2C_INIT?I2C_H
  +--> ?CO?MAIN
  +--> ?PR?_PRINTLN_STR?PRINT
  +--> ?PR?_UART_PUT_BYTE?UARTDRV
  +--> ?PR?SYSUTIL_REBOOT?SYSUTIL
  +--> ?PR?CLI_TSK?CLIHND
  +--> ?PR?SYSUTIL_GET_SUSPEND?SYSUTIL
  +--> ?PR?HANDLE_TIMEOUT_EVENT_10MS?MAIN
  +--> ?PR?HANDLE_TIMEOUT_EVENT_100MS?MAIN
  +--> ?PR?HANDLE_TIMEOUT_EVENT_1SEC?MAIN

?PR?GET_HW_VERSION?HWPORT                        -----    -----      -----    -----      E2D1H    0010H
  +--> ?PR?HWPORT

?PR?TIMER_1_INIT?TIMER                           -----    -----      -----    -----      -----    -----
  +--> ?PR?TIMER
  +--> ?PR?_H2_WRITE_MASKED?H2IOUTIL

?PR?UART_INIT?UARTDRV                            -----    -----      -----    -----      -----    -----
  +--> ?PR?UARTDRV
  +--> ?PR?_H2_WRITE_MASKED?H2IOUTIL

?PR?PRINT_CR_LF?PRINT                            -----    -----      -----    -----      -----    -----
  +--> ?PR?_UART_PUT_BYTE?UARTDRV

?PR?_UART_PUT_BYTE?UARTDRV                       -----    -----      002FH    0005H      -----    -----
  +--> ?PR?UARTDRV

?PR?SYSUTIL_SHOW_CHIP_ID?SYSUTIL                 -----    -----      -----    -----      E2D1H    0005H
  +--> ?CO?SYSUTIL
  +--> ?PR?_PRINT_STR?PRINT
  +--> ?PR?_PRINT_CH?PRINT
  +--> ?PR?PRINT_CR_LF?PRINT

?PR?_PRINT_STR?PRINT                             -----    -----      -----    -----      E328H    0003H
  +--> ?PR?PRINT
  +--> ?PR?_UART_PUT_BYTE?UARTDRV

?PR?_PRINT_CH?PRINT                              -----    -----      -----    -----      -----    -----
  +--> ?PR?_UART_PUT_BYTE?UARTDRV
BL51 BANKED LINKER/LOCATER V6.22.2.0                                                  11/30/2021  16:22:28  PAGE 10



?PR?SYSUTIL_SHOW_SW_VER?SYSUTIL                  -----    -----      -----    -----      -----    -----
  +--> ?CO?SYSUTIL
  +--> ?PR?_PRINT_STR?PRINT
  +--> ?PR?SYSUTIL
  +--> ?PR?_PRINTLN_STR?PRINT

?PR?_PRINTLN_STR?PRINT                           -----    -----      -----    -----      -----    -----
  +--> ?PR?_PRINT_STR?PRINT
  +--> ?PR?PRINT_CR_LF?PRINT

?PR?SYSUTIL_SHOW_COMPILE_DATE?SYSUTIL            -----    -----      -----    -----      -----    -----
  +--> ?CO?SYSUTIL
  +--> ?PR?_PRINT_STR?PRINT
  +--> ?PR?SYSUTIL
  +--> ?PR?_PRINTLN_STR?PRINT

?PR?SYSUTIL_SHOW_HW_VER?SYSUTIL                  -----    -----      -----    -----      -----    -----
  +--> ?CO?SYSUTIL
  +--> ?PR?_PRINT_STR?PRINT
  +--> ?PR?GET_HW_VERSION?HWPORT
  +--> ?PR?_PRINT_CH?PRINT
  +--> ?PR?PRINT_CR_LF?PRINT

?PR?H2_POST_RESET?H2                             -----    -----      -----    -----      -----    -----
  +--> ?PR?_H2_SETUP_CPU_IF?H2
  +--> ?PR?H2_SERDES_MACRO_PHASE_LOOP_LOCKED...
  +--> ?CO?H2
  +--> ?PR?_PRINTLN_STR?PRINT
  +--> ?PR?H2_SERDES_MACRO_CONFIG?H2SDCFG
  +--> ?PR?H2
  +--> ?PR?_START_TIMER?TIMER
  +--> ?PR?TIMEOUT?TIMER
  +--> ?PR?_SYSUTIL_ASSERT_EVENT_SET?SYSUTIL
  +--> ?PR?_H2_WRITE_MASKED?H2IOUTIL
  +--> ?PR?H2_MACTAB_CLEAR?H2MACTAB
  +--> ?PR?H2_VLAN_CLEAR_TAB?H2VLAN
  +--> ?PR?_DELAY?TIMER
  +--> ?PR?H2_MACTAB_AGETIME_SET?H2MACTAB
  +--> ?PR?_FERRET_BUF_CONF_SET?H2

?PR?H2_SERDES_MACRO_PHASE_LOOP_LOCKED...         -----    -----      -----    -----      -----    -----
  +--> ?PR?H2SDCFG
  +--> ?PR?_DELAY_1?TIMER
  +--> ?PR?_H2_WRITE_MASKED?H2IOUTIL

?PR?H2_SERDES_MACRO_CONFIG?H2SDCFG               -----    -----      -----    -----      -----    -----
  +--> ?PR?_H2_SD6G_CFG?H2SDCFG
  +--> ?PR?_H2_SD1G_CFG?H2SDCFG

?PR?_H2_SD6G_CFG?H2SDCFG                         -----    -----      -----    -----      E2DFH    00B5H
  +--> ?PR?_H2_SD6G_READ?H2SDCFG
  +--> ?PR?H2SDCFG
  +--> ?PR?_H2_WRITE_MASKED?H2IOUTIL
  +--> ?PR?_DELAY_1?TIMER
  +--> ?PR?_H2_SD6G_WRITE?H2SDCFG

BL51 BANKED LINKER/LOCATER V6.22.2.0                                                  11/30/2021  16:22:28  PAGE 11


?PR?_H2_SD6G_READ?H2SDCFG                        -----    -----      -----    -----      E394H    0004H
  +--> ?PR?H2SDCFG

?PR?_H2_SD6G_WRITE?H2SDCFG                       -----    -----      -----    -----      E394H    0004H
  +--> ?PR?H2SDCFG

?PR?_H2_SD1G_CFG?H2SDCFG                         -----    -----      -----    -----      E2DAH    0029H
  +--> ?PR?_H2_SD1G_READ?H2SDCFG
  +--> ?PR?H2SDCFG
  +--> ?PR?_H2_WRITE_MASKED?H2IOUTIL
  +--> ?PR?_H2_SD1G_WRITE?H2SDCFG

?PR?_H2_SD1G_READ?H2SDCFG                        -----    -----      -----    -----      E303H    0004H
  +--> ?PR?H2SDCFG

?PR?_H2_SD1G_WRITE?H2SDCFG                       -----    -----      -----    -----      E303H    0004H
  +--> ?PR?H2SDCFG

?PR?H2                                           -----    -----      -----    -----      -----    -----
  +--> ?PR?_WM_ENC?H2

?PR?H2_MACTAB_CLEAR?H2MACTAB                     -----    -----      -----    -----      -----    -----
  +--> ?PR?H2MACTAB
  +--> ?PR?_DO_MACTAB_CMD?H2MACTAB

?PR?_DO_MACTAB_CMD?H2MACTAB                      -----    -----      -----    -----      E2FDH    0004H
  +--> ?PR?H2MACTAB

?PR?H2_VLAN_CLEAR_TAB?H2VLAN                     -----    -----      -----    -----      -----    -----
  +--> ?PR?__H2_VLAN_DO_COMMAND?H2VLAN

?PR?__H2_VLAN_DO_COMMAND?H2VLAN                  -----    -----      -----    -----      -----    -----
  +--> ?PR?_START_TIMER?TIMER
  +--> ?PR?TIMEOUT?TIMER

?PR?H2_MACTAB_AGETIME_SET?H2MACTAB               -----    -----      -----    -----      -----    -----
  +--> ?PR?H2MACTAB
  +--> ?PR?_H2_WRITE_MASKED?H2IOUTIL

?PR?_FERRET_BUF_CONF_SET?H2                      -----    -----      -----    -----      E2CAH    00E1H
  +--> ?PR?H2
  +--> ?PR?_WM_ENC?H2
  +--> ?PR?_UPORT2CPORT?HWPORT

?PR?_UPORT2CPORT?HWPORT                          -----    -----      -----    -----      -----    -----
  +--> ?CO?HWPORT

?PR?GPIO_INIT?HWPORT                             -----    -----      -----    -----      -----    -----
  +--> ?PR?H2_SGPIO_ENABLE?H2GPIOS

?PR?H2_SGPIO_ENABLE?H2GPIOS                      -----    -----      -----    -----      E2CAH    0001H
  +--> ?PR?_H2_GPIO_MODE_SET?H2GPIOS
  +--> ?PR?_H2_WRITE_MASKED?H2IOUTIL
  +--> ?PR?_H2_SGPIO_WRITE?H2GPIOS

?PR?_H2_GPIO_MODE_SET?H2GPIOS                    -----    -----      -----    -----      E2CCH    0005H
  +--> ?PR?H2GPIOS
BL51 BANKED LINKER/LOCATER V6.22.2.0                                                  11/30/2021  16:22:28  PAGE 12


  +--> ?PR?_H2_WRITE_MASKED?H2IOUTIL

?PR?_H2_SGPIO_WRITE?H2GPIOS                      -----    -----      -----    -----      E2D0H    0004H
  +--> ?PR?H2GPIOS
  +--> ?PR?_H2_WRITE_MASKED?H2IOUTIL
  +--> ?PR?_DELAY_1?TIMER

?PR?FLASH_LOAD_CONFIG?SPIFLASH                   -----    -----      -----    -----      E2CAH    0002H

?PR?SYSUTIL_HANG?SYSUTIL                         -----    -----      -----    -----      E2CAH    0001H
  +--> ?PR?SYSUTIL_ASSERT_EVENT_GET?SYSUTIL
  +--> ?PR?_DELAY_1?TIMER
  +--> ?CO?SYSUTIL
  +--> ?PR?_PRINT_STR?PRINT
  +--> ?PR?_PRINT_HEX_B?PRINT
  +--> ?PR?SYSUTIL_SHOW_SW_VER?SYSUTIL
  +--> ?PR?SYSUTIL_SHOW_COMPILE_DATE?SYSUTIL

?PR?_PRINT_HEX_B?PRINT                           -----    -----      -----    -----      E324H    0001H
  +--> ?PR?_HEX_TO_ASCII_NIB?MISC1
  +--> ?PR?_UART_PUT_BYTE?UARTDRV

?PR?PHY_HW_INIT?HWPORT                           -----    -----      -----    -----      E2CAH    0005H
  +--> ?PR?_START_TIMER?TIMER
  +--> ?PR?HWPORT
  +--> ?PR?TIMEOUT?TIMER
  +--> ?PR?_DELAY_1?TIMER
  +--> ?PR?_H2_WRITE_MASKED?H2IOUTIL

?PR?H2_INIT_PORTS?H2                             -----    -----      -----    -----      E2CAH    0006H
  +--> ?PR?_UPORT2CPORT?HWPORT
  +--> ?PR?H2
  +--> ?PR?_H2_SETUP_PORT?H2
  +--> ?PR?__PORT_RESET?H2
  +--> ?PR?_H2_WRITE_MASKED?H2IOUTIL
  +--> ?PR?VTSS_UPDATE_MASKS?H2

?PR?_H2_SETUP_PORT?H2                            -----    -----      -----    -----      E2DBH    0002H
  +--> ?PR?__PORT_RESET?H2
  +--> ?PR?__SETUP_PORT?H2
  +--> ?PR?__SETUP_PCS?H2

?PR?__PORT_RESET?H2                              -----    -----      -----    -----      E2DDH    0002H
  +--> ?PR?__FERRET_PORT_RESET?H2
  +--> ?PR?_H2_MACTAB_FLUSH_PORT?H2MACTAB

?PR?__FERRET_PORT_RESET?H2                       -----    -----      -----    -----      E2E0H    0007H
  +--> ?PR?H2
  +--> ?PR?_H2_WRITE_MASKED?H2IOUTIL
  +--> ?PR?_DELAY_1?TIMER
  +--> ?PR?__SETUP_MAC?H2
  +--> ?PR?_H2_SETUP_FLOW_CONTROL?H2FLOWC

?PR?__SETUP_MAC?H2                               -----    -----      -----    -----      E2E7H    0013H
  +--> ?PR?H2
  +--> ?PR?_H2_WRITE_MASKED?H2IOUTIL
  +--> ?PR?_DELAY_1?TIMER
BL51 BANKED LINKER/LOCATER V6.22.2.0                                                  11/30/2021  16:22:28  PAGE 13


  +--> ?PR?_PHY_MAP_MIIM_NO?PHYMAP

?PR?_PHY_MAP_MIIM_NO?PHYMAP                      -----    -----      -----    -----      -----    -----
  +--> ?PR?PHYMAP

?PR?_H2_SETUP_FLOW_CONTROL?H2FLOWC               -----    -----      -----    -----      E2E7H    0003H
  +--> ?PR?_PHY_FLOWCONTROL_GET?PHYTSK
  +--> ?PR?__FERRET_PORT_FC_SETUP?H2FLOWC

?PR?_PHY_FLOWCONTROL_GET?PHYTSK                  -----    -----      -----    -----      -----    -----
  +--> ?PR?PHYTSK

?PR?__FERRET_PORT_FC_SETUP?H2FLOWC               -----    -----      -----    -----      E2EAH    003AH
  +--> ?PR?H2FLOWC
  +--> ?PR?_GET_MAC_ADDR?HWPORT
  +--> ?PR?_H2_WRITE_MASKED?H2IOUTIL
  +--> ?PR?_UPORT2CPORT?HWPORT
  +--> ?PR?_PORT_LINK_MODE_GET?PHYTSK
  +--> ?PR?_WM_ENC?H2FLOWC

?PR?_GET_MAC_ADDR?HWPORT                         -----    -----      -----    -----      E324H    0004H
  +--> ?PR?_FLASH_READ_MAC_ADDR?SPIFLASH

?PR?_PORT_LINK_MODE_GET?PHYTSK                   -----    -----      -----    -----      -----    -----
  +--> ?PR?PHYTSK

?PR?_H2_MACTAB_FLUSH_PORT?H2MACTAB               -----    -----      -----    -----      E2DFH    0001H
  +--> ?PR?H2MACTAB
  +--> ?PR?_H2_MACTAB_AGE?H2MACTAB

?PR?_H2_MACTAB_AGE?H2MACTAB                      -----    -----      -----    -----      E2E0H    0005H
  +--> ?PR?H2MACTAB
  +--> ?PR?_H2_WRITE_MASKED?H2IOUTIL
  +--> ?PR?_DO_MACTAB_CMD?H2MACTAB

?PR?__SETUP_PORT?H2                              -----    -----      -----    -----      E2DDH    0003H
  +--> ?PR?_H2_SETUP_FLOW_CONTROL?H2FLOWC
  +--> ?PR?_H2_ENABLE_EXC_COL_DROP?H2
  +--> ?PR?H2
  +--> ?PR?_H2_WRITE_MASKED?H2IOUTIL
  +--> ?PR?__FERRET_PORT_RESET?H2
  +--> ?PR?VTSS_UPDATE_MASKS?H2

?PR?_H2_ENABLE_EXC_COL_DROP?H2                   -----    -----      -----    -----      E2E0H    0001H
  +--> ?PR?H2
  +--> ?PR?_H2_WRITE_MASKED?H2IOUTIL

?PR?__SETUP_PCS?H2                               -----    -----      -----    -----      E2DDH    000BH
  +--> ?PR?_PHY_MAP_MIIM_NO?PHYMAP
  +--> ?PR?_PHY_MAP_SERDES?PHYMAP
  +--> ?PR?H2
  +--> ?PR?_H2_WRITE_MASKED?H2IOUTIL
  +--> ?PR?_H2_PCS1G_CLOCK_SET?H2PCS1G

?PR?_PHY_MAP_SERDES?PHYMAP                       -----    -----      -----    -----      -----    -----
  +--> ?PR?PHYMAP

BL51 BANKED LINKER/LOCATER V6.22.2.0                                                  11/30/2021  16:22:28  PAGE 14


?PR?_H2_PCS1G_CLOCK_SET?H2PCS1G                  -----    -----      -----    -----      E2E8H    0001H
  +--> ?PR?H2PCS1G
  +--> ?PR?_H2_WRITE_MASKED?H2IOUTIL
  +--> ?PR?_DELAY_1?TIMER

?PR?PHY_TSK_INIT?PHYTSK                          -----    -----      -----    -----      E2CAH    0002H
  +--> ?PR?PHYTSK
  +--> ?PR?_UPORT2CPORT?HWPORT
  +--> ?PR?_PHY_INIT_STATE?PHYTSK
  +--> ?PR?_PHY_MAP?PHYMAP
  +--> ?PR?_PHY_MAP_SERDES?PHYMAP
  +--> ?PR?PHY_INIT?PHYTSK
  +--> ?PR?SFP_INIT?PHYTSK
  +--> ?PR?PHY_CHECK_ALL?PHYTSK

?PR?_PHY_INIT_STATE?PHYTSK                       -----    -----      -----    -----      E2CCH    0001H
  +--> ?PR?_PHY_MAP?PHYMAP
  +--> ?PR?_PHY_WRITE_MASKED?PHYDRV
  +--> ?PR?_PHY_MAP_SERDES?PHYMAP

?PR?_PHY_MAP?PHYMAP                              -----    -----      -----    -----      -----    -----
  +--> ?PR?PHYMAP

?PR?_PHY_WRITE_MASKED?PHYDRV                     -----    -----      002EH    0006H      -----    -----
  +--> ?PR?_PHY_READ?PHYDRV
  +--> ?PR?_PHY_WRITE?PHYDRV

?PR?_PHY_READ?PHYDRV                             -----    -----      0034H    0004H      -----    -----
  +--> ?PR?_PHY_MAP?PHYMAP
  +--> ?PR?__PHY_READ_REG_DATA?PHYDRV

?PR?__PHY_READ_REG_DATA?PHYDRV                   -----    -----      0038H    000AH      -----    -----
  +--> ?PR?_PHY_MAP_MIIM_NO?PHYMAP
  +--> ?PR?_PHY_MAP_PHY_NO?PHYMAP
  +--> ?PR?PHYDRV
  +--> ?PR?_PHY_AWAIT_COMPLETED?PHYDRV

?PR?_PHY_MAP_PHY_NO?PHYMAP                       -----    -----      -----    -----      -----    -----
  +--> ?PR?PHYMAP
  +--> ?CO?PHYMAP

?PR?_PHY_AWAIT_COMPLETED?PHYDRV                  -----    -----      0042H    0005H      -----    -----
  +--> ?PR?PHYDRV

?PR?_PHY_WRITE?PHYDRV                            -----    -----      0034H    0005H      -----    -----
  +--> ?PR?_PHY_MAP?PHYMAP
  +--> ?PR?_PHY_MAP_MIIM_NO?PHYMAP
  +--> ?PR?_PHY_MAP_PHY_NO?PHYMAP
  +--> ?PR?PHYDRV
  +--> ?PR?_PHY_AWAIT_COMPLETED?PHYDRV

?PR?PHY_INIT?PHYTSK                              -----    -----      -----    -----      E2CCH    0004H
  +--> ?PR?_DELAY?TIMER
  +--> ?PR?_PHY_PRE_RESET?PHYDRV
  +--> ?PR?_PHY_PAGE_STD?PHYDRV
  +--> ?PR?PHYTSK
  +--> ?PR?_UPORT2CPORT?HWPORT
BL51 BANKED LINKER/LOCATER V6.22.2.0                                                  11/30/2021  16:22:28  PAGE 15


  +--> ?PR?_PHY_MAP?PHYMAP
  +--> ?PR?_PHY_PAGE_TR?PHYDRV
  +--> ?PR?_PHY_WRITE?PHYDRV
  +--> ?PR?_PHY_SETUP?PHYDRV
  +--> ?PR?_PHY_POST_RESET?PHYDRV
  +--> ?CO?PHYTSK
  +--> ?PR?_PRINT_STR?PRINT
  +--> ?PR?_PRINT_DEC?PRINT
  +--> ?PR?PRINT_CR_LF?PRINT
  +--> ?PR?_PHY_POWER_DOWN?PHYDRV
  +--> ?PR?_PHY_READ?PHYDRV

?PR?_PHY_PRE_RESET?PHYDRV                        -----    -----      -----    -----      E2D0H    0004H
  +--> ?PR?_PHY_READ_ID?PHY_BASE

?PR?_PHY_READ_ID?PHY_BASE                        -----    -----      -----    -----      E2DEH    0008H
  +--> ?PR?_PHY_MAP?PHYMAP
  +--> ?PR?PHY_BASE
  +--> ?PR?_PHY_READ?PHYDRV

?PR?_PHY_PAGE_STD?PHYDRV                         -----    -----      -----    -----      -----    -----
  +--> ?PR?_PHY_WRITE?PHYDRV

?PR?_PHY_PAGE_TR?PHYDRV                          -----    -----      -----    -----      -----    -----
  +--> ?PR?_PHY_WRITE?PHYDRV

?PR?_PHY_SETUP?PHYDRV                            -----    -----      -----    -----      E2D0H    0004H
  +--> ?PR?_PHY_READ_ID?PHY_BASE

?PR?_PHY_POST_RESET?PHYDRV                       -----    -----      -----    -----      E2D0H    0004H
  +--> ?PR?_PHY_READ_ID?PHY_BASE

?PR?_PRINT_DEC?PRINT                             -----    -----      -----    -----      E31EH    000FH
  +--> ?PR?PRINT
  +--> ?PR?_UART_PUT_BYTE?UARTDRV

?PR?_PHY_POWER_DOWN?PHYDRV                       -----    -----      -----    -----      -----    -----
  +--> ?PR?PHYDRV
  +--> ?PR?_PHY_WRITE_MASKED?PHYDRV

?PR?SFP_INIT?PHYTSK                              -----    -----      -----    -----      -----    -----
  +--> ?PR?_H2_GPIO_MODE_SET?H2GPIOS
  +--> ?PR?_H2_GPIO_WRITE?H2GPIOS
  +--> ?PR?__SFP_TX_DISABLE_SET?PHYTSK

?PR?_H2_GPIO_WRITE?H2GPIOS                       -----    -----      -----    -----      E2DAH    0001H
  +--> ?PR?H2GPIOS
  +--> ?PR?_H2_WRITE_MASKED?H2IOUTIL

?PR?__SFP_TX_DISABLE_SET?PHYTSK                  -----    -----      -----    -----      -----    -----
  +--> ?PR?_H2_GPIO_WRITE?H2GPIOS

?PR?PHY_CHECK_ALL?PHYTSK                         -----    -----      -----    -----      E2CCH    0003H
  +--> ?PR?PHYTSK
  +--> ?PR?_UPORT2CPORT?HWPORT
  +--> ?PR?_PHY_MAP?PHYMAP

BL51 BANKED LINKER/LOCATER V6.22.2.0                                                  11/30/2021  16:22:28  PAGE 16


?PR?LED_INIT?LEDTSK                              -----    -----      -----    -----      -----    -----
  +--> ?PR?LEDTSK
  +--> ?PR?_LED_UPDATE_SYSTEM?LEDTSK
  +--> ?PR?_LED_UPDATE_PORT_BY_TOWER_MODE?LE...

?PR?_LED_UPDATE_SYSTEM?LEDTSK                    -----    -----      -----    -----      -----    -----
  +--> ?PR?__LED_MODE_SET?LEDTSK

?PR?__LED_MODE_SET?LEDTSK                        0020H.5  0000H.1    -----    -----      E2CDH    0003H
  +--> ?PR?_H2_SGPIO_WRITE?H2GPIOS

?PR?_LED_UPDATE_PORT_BY_TOWER_MODE?LE...         -----    -----      -----    -----      E2CAH    0003H
  +--> ?PR?_UPORT2CPORT?HWPORT
  +--> ?PR?_PORT_LINK_MODE_GET?PHYTSK
  +--> ?PR?__LED_MODE_SET?LEDTSK

?PR?I2C_INIT?I2C_H                               -----    -----      -----    -----      E31EH    0004H
  +--> ?PR?I2C_H

?PR?SYSUTIL_REBOOT?SYSUTIL                       -----    -----      -----    -----      -----    -----
  +--> ?PR?H2_CHIP_RESET?H2

?PR?H2_CHIP_RESET?H2                             -----    -----      -----    -----      -----    -----
  +--> ?PR?H2

?PR?CLI_TSK?CLIHND                               -----    -----      -----    -----      E2CAH    0001H
  +--> ?PR?CMD_READY?CLIHND
  +--> ?PR?SKIP_SPACES?CLIHND
  +--> ?PR?_CMP_CMD_TXT?TXT
  +--> ?PR?CLIHND
  +--> ?PR?HANDLE_SYS_CONFIG?CLIHND
  +--> ?PR?HANDLE_COMMAND?CLIHND
  +--> ?PR?UART_BYTE_READY?UARTDRV
  +--> ?PR?UART_GET_BYTE?UARTDRV
  +--> ?CO?CLIHND
  +--> ?PR?_PRINTLN_STR?PRINT
  +--> ?PR?_UART_PUT_BYTE?UARTDRV

?PR?CMD_READY?CLIHND                             -----    -----      -----    -----      E2CBH    0001H
  +--> ?PR?UART_BYTE_READY?UARTDRV
  +--> ?PR?UART_GET_BYTE?UARTDRV
  +--> ?PR?CLI_BACKSPACE?CLIHND
  +--> ?PR?_DELAY_1?TIMER
  +--> ?PR?CLIHND
  +--> ?PR?_UART_PUT_BYTE?UARTDRV

?PR?CLI_BACKSPACE?CLIHND                         -----    -----      -----    -----      -----    -----
  +--> ?PR?_CLI_CSI_PREFIX?CLIHND

?PR?_CLI_CSI_PREFIX?CLIHND                       -----    -----      002EH    0001H      -----    -----
  +--> ?PR?_UART_PUT_BYTE?UARTDRV

?PR?SKIP_SPACES?CLIHND                           -----    -----      -----    -----      -----    -----
  +--> ?PR?CLIHND

?PR?_CMP_CMD_TXT?TXT                             -----    -----      -----    -----      E2D2H    0009H
  +--> ?PR?TXT
BL51 BANKED LINKER/LOCATER V6.22.2.0                                                  11/30/2021  16:22:28  PAGE 17


  +--> ?PR?_CONV_TO_UPPER_CASE?MISC1

?PR?HANDLE_SYS_CONFIG?CLIHND                     -----    -----      -----    -----      E2CBH    0007H
  +--> ?PR?RETRIEVE_STR_PARMS?CLIHND
  +--> ?PR?_FLASH_READ_MAC_ADDR?SPIFLASH
  +--> ?PR?_PRINT_MAC_ADDR?PRINT
  +--> ?PR?PRINT_CR_LF?PRINT
  +--> ?PR?_CMP_CMD_TXT?TXT
  +--> ?PR?_CMD_RETRIEVE_MAC_ADDR?CLIHND
  +--> ?PR?_FLASH_WRITE_MAC_ADDR?SPIFLASH

?PR?RETRIEVE_STR_PARMS?CLIHND                    -----    -----      -----    -----      -----    -----
  +--> ?PR?CLIHND
  +--> ?PR?SKIP_SPACES?CLIHND

?PR?_PRINT_MAC_ADDR?PRINT                        -----    -----      -----    -----      E2E5H    0004H
  +--> ?PR?PRINT
  +--> ?PR?_PRINT_HEX_B?PRINT
  +--> ?PR?_PRINT_CH?PRINT

?PR?_CMD_RETRIEVE_MAC_ADDR?CLIHND                -----    -----      -----    -----      E2D2H    000CH
  +--> ?PR?CLIHND
  +--> ?PR?_ASCII_TO_HEX_NIB?MISC1

?PR?_ASCII_TO_HEX_NIB?MISC1                      -----    -----      -----    -----      -----    -----
  +--> ?PR?_CONV_TO_UPPER_CASE?MISC1

?PR?_FLASH_WRITE_MAC_ADDR?SPIFLASH               -----    -----      -----    -----      E2D2H    000EH
  +--> ?PR?_H2_MACTAB_SET?H2MACTAB

?PR?_H2_MACTAB_SET?H2MACTAB                      -----    -----      -----    -----      E2E0H    001DH
  +--> ?PR?H2MACTAB
  +--> ?PR?_WRITE_MACDATA_REG?H2MACTAB
  +--> ?PR?_H2_MAC_TYPE?H2MACTAB
  +--> ?PR?_BUILD_MACHDATA?H2MACTAB
  +--> ?PR?_BUILD_MACLDATA?H2MACTAB
  +--> ?PR?_DO_MACTAB_CMD?H2MACTAB

?PR?_WRITE_MACDATA_REG?H2MACTAB                  -----    -----      -----    -----      E2FDH    0002H
  +--> ?PR?_BUILD_MACHDATA?H2MACTAB
  +--> ?PR?H2MACTAB
  +--> ?PR?_BUILD_MACLDATA?H2MACTAB

?PR?_BUILD_MACHDATA?H2MACTAB                     -----    -----      -----    -----      E2FFH    0004H

?PR?_BUILD_MACLDATA?H2MACTAB                     -----    -----      -----    -----      E2FFH    0004H
  +--> ?PR?H2MACTAB

?PR?_H2_MAC_TYPE?H2MACTAB                        -----    -----      -----    -----      -----    -----
  +--> ?PR?_IS_IPMC_ENTRY?H2MACTAB
  +--> ?PR?_IS_IPV6MC_ENTRY?H2MACTAB

?PR?_IS_IPMC_ENTRY?H2MACTAB                      -----    -----      -----    -----      -----    -----
  +--> ?PR?H2MACTAB

?PR?_IS_IPV6MC_ENTRY?H2MACTAB                    -----    -----      -----    -----      -----    -----
  +--> ?PR?H2MACTAB
BL51 BANKED LINKER/LOCATER V6.22.2.0                                                  11/30/2021  16:22:28  PAGE 18



?PR?HANDLE_COMMAND?CLIHND                        -----    -----      -----    -----      E2CBH    0004H
  +--> ?PR?CLIHND
  +--> ?PR?RETRIEVE_PARMS?CLIHND
  +--> ?PR?_CONV_TO_UPPER_CASE?MISC1
  +--> ?PR?CLI_SHOW_SW_VER?CLIHND
  +--> ?PR?CLI_SHOW_PORT_INFO?CLIHND
  +--> ?PR?_PRINT_PARSE_INFO_32?PRINT
  +--> ?PR?_PHY_WRITE?PHYDRV
  +--> ?PR?PRINT_HEX_PREFIX?PRINT
  +--> ?PR?_PHY_READ?PHYDRV
  +--> ?PR?_PRINT_HEX_W?PRINT
  +--> ?PR?PRINT_CR_LF?PRINT
  +--> ?PR?_CLI_SHOW_MAC_ADDR?CLIHND
  +--> ?PR?_H2_MACTAB_FLUSH_PORT?H2MACTAB
  +--> ?PR?CLI_SHOW_HELP_MSG?CLIHND
  +--> ?PR?_PHY_FLOWCONTROL_SET?PHYTSK
  +--> ?PR?_PHY_STATE_TO_SETUP?PHYTSK
  +--> ?PR?_UPORT2CPORT?HWPORT
  +--> ?PR?_IS_PORT_LINK?PHYTSK
  +--> ?PR?_H2_ENABLE_EXC_COL_DROP?H2
  +--> ?PR?_PRINT_PORT_STATISTICS?H2STATS
  +--> ?PR?_H2_STATS_COUNTER_CLEAR?H2STATS
  +--> ?PR?H2_RESET?H2
  +--> ?PR?_SYSUTIL_SET_SUSPEND?SYSUTIL

?PR?RETRIEVE_PARMS?CLIHND                        -----    -----      -----    -----      E2CFH    0012H
  +--> ?PR?CLIHND
  +--> ?PR?SKIP_SPACES?CLIHND
  +--> ?PR?_CONV_TO_UPPER_CASE?MISC1
  +--> ?PR?_ASCII_TO_HEX_NIB?MISC1

?PR?CLI_SHOW_SW_VER?CLIHND                       -----    -----      -----    -----      E2CFH    0002H
  +--> ?PR?SYSUTIL_SHOW_CHIP_ID?SYSUTIL
  +--> ?PR?SYSUTIL_SHOW_SW_VER?SYSUTIL
  +--> ?PR?SYSUTIL_SHOW_COMPILE_DATE?SYSUTIL
  +--> ?PR?SYSUTIL_SHOW_HW_VER?SYSUTIL
  +--> ?CO?CLIHND
  +--> ?PR?_PRINT_STR?PRINT
  +--> ?PR?_PRINT_SPACES?PRINT
  +--> ?PR?_PRINT_DEC?PRINT
  +--> ?PR?PRINT_CR_LF?PRINT
  +--> ?PR?_PRINTLN_STR?PRINT
  +--> ?PR?CLIHND
  +--> ?PR?_UPORT2CPORT?HWPORT
  +--> ?PR?_PHY_MAP?PHYMAP
  +--> ?PR?_PHY_MAP_SERDES?PHYMAP
  +--> ?PR?_PRINT_PORT_MAC_ADDR?PRINT
  +--> ?PR?_PHY_MAP_MIIM_NO?PHYMAP
  +--> ?PR?_PHY_MAP_PHY_NO?PHYMAP
  +--> ?PR?_PRINT_DEC_8_RIGHT_2?PRINT

?PR?_PRINT_SPACES?PRINT                          -----    -----      -----    -----      E2E5H    0001H
  +--> ?PR?PRINT
  +--> ?PR?_UART_PUT_BYTE?UARTDRV

?PR?_PRINT_PORT_MAC_ADDR?PRINT                   -----    -----      -----    -----      E2D1H    0006H
BL51 BANKED LINKER/LOCATER V6.22.2.0                                                  11/30/2021  16:22:28  PAGE 19


  +--> ?PR?_GET_MAC_ADDR?HWPORT
  +--> ?PR?_PRINT_MAC_ADDR?PRINT

?PR?_PRINT_DEC_8_RIGHT_2?PRINT                   -----    -----      -----    -----      E2E3H    0001H
  +--> ?PR?PRINT
  +--> ?PR?_UART_PUT_BYTE?UARTDRV

?PR?CLI_SHOW_PORT_INFO?CLIHND                    -----    -----      -----    -----      E2CFH    000FH
  +--> ?CO?CLIHND
  +--> ?PR?_PRINT_STR?PRINT
  +--> ?PR?_PRINT_SPACES?PRINT
  +--> ?PR?_PRINTLN_STR?PRINT
  +--> ?PR?_PRINT_LINE?PRINT
  +--> ?PR?PRINT_CR_LF?PRINT
  +--> ?PR?CLIHND
  +--> ?PR?_UPORT2CPORT?HWPORT
  +--> ?PR?_PHY_READ_ID?PHY_BASE
  +--> ?PR?_PHY_MAP_MIIM_NO?PHYMAP
  +--> ?PR?_PHY_MAP_PHY_NO?PHYMAP
  +--> ?PR?_PORT_LINK_MODE_GET?PHYTSK
  +--> ?PR?_PORT_INFO_FORMAT_OUTPUT?CLIHND

?PR?_PRINT_LINE?PRINT                            -----    -----      -----    -----      E2DEH    0001H
  +--> ?PR?PRINT
  +--> ?PR?_UART_PUT_BYTE?UARTDRV

?PR?_PORT_INFO_FORMAT_OUTPUT?CLIHND              -----    -----      -----    -----      E2DEH    0005H
  +--> ?PR?_PRINT_SPACES?PRINT
  +--> ?PR?CLIHND
  +--> ?PR?_PRINT_DEC_8_RIGHT_2?PRINT
  +--> ?PR?PRINT_HEX_PREFIX?PRINT
  +--> ?PR?_PRINT_HEX_B?PRINT
  +--> ?PR?_PHY_MAP?PHYMAP
  +--> ?PR?_PRINT_PHY_MODEL_2_TXT?CLIHND
  +--> ?CO?CLIHND
  +--> ?PR?_PRINT_N_STR?PRINT
  +--> ?PR?_PRINT_STR?PRINT
  +--> ?PR?PRINT_CR_LF?PRINT

?PR?PRINT_HEX_PREFIX?PRINT                       -----    -----      -----    -----      -----    -----
  +--> ?PR?_UART_PUT_BYTE?UARTDRV

?PR?_PRINT_PHY_MODEL_2_TXT?CLIHND                -----    -----      -----    -----      -----    -----
  +--> ?CO?CLIHND
  +--> ?PR?_PRINT_N_STR?PRINT

?PR?_PRINT_N_STR?PRINT                           -----    -----      -----    -----      E2E3H    0004H
  +--> ?PR?PRINT
  +--> ?PR?_UART_PUT_BYTE?UARTDRV

?PR?_PRINT_PARSE_INFO_32?PRINT                   -----    -----      -----    -----      E2CFH    0004H
  +--> ?CO?PRINT
  +--> ?PR?_PRINT_STR?PRINT
  +--> ?PR?PRINT_CR_LF?PRINT
  +--> ?PR?PRINT_HEX_PREFIX?PRINT
  +--> ?PR?_PRINT_HEX_DW?PRINT
  +--> ?PR?_PRINT_DEC_RIGHT?PRINT
BL51 BANKED LINKER/LOCATER V6.22.2.0                                                  11/30/2021  16:22:28  PAGE 20


  +--> ?PR?_PRINT_BINARY_32?PRINT
  +--> ?PR?_PRINT_SPACES?PRINT

?PR?_PRINT_HEX_DW?PRINT                          -----    -----      -----    -----      E31EH    0004H
  +--> ?PR?_PRINT_HEX_W?PRINT

?PR?_PRINT_HEX_W?PRINT                           -----    -----      -----    -----      E322H    0002H
  +--> ?PR?_PRINT_HEX_B?PRINT

?PR?_PRINT_DEC_RIGHT?PRINT                       -----    -----      -----    -----      -----    -----
  +--> ?PR?_PRINT_DEC_32?PRINT

?PR?_PRINT_DEC_32?PRINT                          -----    -----      -----    -----      E2DAH    0011H
  +--> ?PR?_UART_PUT_BYTE?UARTDRV
  +--> ?PR?PRINT

?PR?_PRINT_BINARY_32?PRINT                       -----    -----      -----    -----      E2D3H    0005H
  +--> ?PR?_UART_PUT_BYTE?UARTDRV

?PR?_CLI_SHOW_MAC_ADDR?CLIHND                    -----    -----      -----    -----      E2CFH    0016H
  +--> ?PR?_H2_MACTAB_GET_NEXT?H2MACTAB
  +--> ?PR?_PRINT_MAC_ADDR?PRINT
  +--> ?PR?_PRINT_SPACES?PRINT
  +--> ?CO?CLIHND
  +--> ?PR?_PRINT_STR?PRINT
  +--> ?PR?_PRINT_PORT_LIST?PRINT
  +--> ?PR?PRINT_CR_LF?PRINT
  +--> ?PR?_PRINT_DEC?PRINT

?PR?_H2_MACTAB_GET_NEXT?H2MACTAB                 -----    -----      -----    -----      E2E5H    0007H
  +--> ?PR?_WRITE_MACDATA_REG?H2MACTAB
  +--> ?PR?_H2_MAC_TYPE?H2MACTAB
  +--> ?PR?H2MACTAB
  +--> ?PR?_DO_MACTAB_CMD?H2MACTAB
  +--> ?PR?_H2_MACTAB_RESULT?H2MACTAB

?PR?_H2_MACTAB_RESULT?H2MACTAB                   -----    -----      -----    -----      E2ECH    001CH
  +--> ?PR?H2MACTAB

?PR?_PRINT_PORT_LIST?PRINT                       -----    -----      -----    -----      E2E5H    0006H
  +--> ?CO?PRINT
  +--> ?PR?_PRINT_STR?PRINT
  +--> ?PR?_PRINT_CH?PRINT
  +--> ?PR?_CPORT2UPORT?HWPORT
  +--> ?PR?_PRINT_DEC?PRINT

?PR?_CPORT2UPORT?HWPORT                          -----    -----      -----    -----      -----    -----
  +--> ?CO?HWPORT

?PR?CLI_SHOW_HELP_MSG?CLIHND                     -----    -----      -----    -----      -----    -----
  +--> ?CO?CLIHND
  +--> ?PR?_PRINTLN_STR?PRINT

?PR?_PHY_FLOWCONTROL_SET?PHYTSK                  -----    -----      -----    -----      -----    -----
  +--> ?PR?PHYTSK

?PR?_PHY_STATE_TO_SETUP?PHYTSK                   -----    -----      -----    -----      E2CFH    0001H
BL51 BANKED LINKER/LOCATER V6.22.2.0                                                  11/30/2021  16:22:28  PAGE 21


  +--> ?PR?_PHY_MAP?PHYMAP
  +--> ?PR?PHYTSK
  +--> ?PR?_DO_LINK_DOWN?PHYTSK
  +--> ?PR?_PHY_WRITE?PHYDRV
  +--> ?PR?_PHY_WRITE_MASKED?PHYDRV
  +--> ?PR?_PHY_MAP_SERDES?PHYMAP

?PR?_DO_LINK_DOWN?PHYTSK                         -----    -----      -----    -----      E2DAH    0001H
  +--> ?PR?PHYTSK
  +--> ?PR?_PHY_MAP?PHYMAP
  +--> ?PR?_PHY_DO_LINK_DOWN_SETTINGS?PHYDRV
  +--> ?PR?_H2_SETUP_PORT?H2
  +--> ?PR?_CALLBACK_LINK_DOWN?EVENT

?PR?_PHY_DO_LINK_DOWN_SETTINGS?PHYDRV            -----    -----      -----    -----      E2DBH    0001H
  +--> ?PR?PHYDRV
  +--> ?PR?_PHY_WRITE_MASKED?PHYDRV
  +--> ?PR?_DELAY_1?TIMER

?PR?_CALLBACK_LINK_DOWN?EVENT                    -----    -----      -----    -----      -----    -----
  +--> ?PR?LED_REFRESH?LEDTSK

?PR?_IS_PORT_LINK?PHYTSK                         -----    -----      -----    -----      -----    -----
  +--> ?PR?PHYTSK

?PR?_PRINT_PORT_STATISTICS?H2STATS               -----    -----      -----    -----      E2CFH    000BH
  +--> ?PR?H2STATS
  +--> ?PR?_PRINT_TXT?TXT
  +--> ?PR?_TXT_LEN?TXT
  +--> ?PR?_PRINT_LINE?PRINT
  +--> ?PR?PRINT_CR_LF?PRINT
  +--> ?CO?H2STATS
  +--> ?PR?_PRINT_TXT_LEFT?TXT
  +--> ?PR?_H2_STATS_COUNTER_GET?H2STATS
  +--> ?PR?_PRINT_DEC_RIGHT?PRINT
  +--> ?PR?_PRINT_STR?PRINT
  +--> ?PR?_PRINT_SPACES?PRINT

?PR?_PRINT_TXT?TXT                               -----    -----      -----    -----      E2DDH    0001H
  +--> ?PR?TXT
  +--> ?PR?_PRINT_STR?PRINT
  +--> ?CO?TXT
  +--> ?PR?_PRINT_HEX_B?PRINT
  +--> ?PR?PRINT_CR_LF?PRINT

?PR?_TXT_LEN?TXT                                 -----    -----      -----    -----      -----    -----
  +--> ?PR?TXT
  +--> ?PR?_STRLEN?STRLEN

?PR?_PRINT_TXT_LEFT?TXT                          -----    -----      -----    -----      E2DAH    0003H
  +--> ?PR?_TXT_LEN?TXT
  +--> ?PR?_PRINT_TXT?TXT
  +--> ?PR?_PRINT_SPACES?PRINT

?PR?_H2_STATS_COUNTER_GET?H2STATS                -----    -----      -----    -----      E2DAH    0009H
  +--> ?PR?__H2_STATS_COUNTER_GET_PRIVATE?H2...

BL51 BANKED LINKER/LOCATER V6.22.2.0                                                  11/30/2021  16:22:28  PAGE 22


?PR?__H2_STATS_COUNTER_GET_PRIVATE?H2...         -----    -----      -----    -----      E2E3H    0006H
  +--> ?PR?_H2_WRITE_MASKED?H2IOUTIL

?PR?H2_RESET?H2                                  -----    -----      -----    -----      -----    -----
  +--> ?PR?H2
  +--> ?PR?_H2_WRITE_MASKED?H2IOUTIL

?PR?HANDLE_TIMEOUT_EVENT_10MS?MAIN               -----    -----      -----    -----      -----    -----
  +--> ?PR?PHY_TIMER_10?PHYTSK
  +--> ?PR?PHY_TSK?PHYTSK

?PR?PHY_TSK?PHYTSK                               -----    -----      -----    -----      E2CAH    0002H
  +--> ?PR?PHYTSK
  +--> ?PR?_UPORT2CPORT?HWPORT
  +--> ?PR?_PHY_MAP?PHYMAP
  +--> ?PR?_HANDLE_PHY?PHYTSK
  +--> ?PR?_PHY_MAP_SERDES?PHYMAP
  +--> ?PR?_HANDLE_SERDES?PHYTSK

?PR?_HANDLE_PHY?PHYTSK                           -----    -----      -----    -----      E2CCH    0005H
  +--> ?PR?PHYTSK
  +--> ?PR?_PHY_FLOWCONTROL_GET?PHYTSK
  +--> ?PR?_PHY_WRITE?PHYDRV
  +--> ?CO?PHYTSK
  +--> ?PR?PRINT_CR_LF?PRINT
  +--> ?PR?_PHY_RESTART_ANEG?PHYDRV
  +--> ?PR?_PRINT_STR?PRINT
  +--> ?PR?_PRINTLN_STR?PRINT
  +--> ?PR?_H2_SETUP_PORT?H2
  +--> ?PR?_PHY_DO_LINK_UP_SETTINGS?PHYDRV
  +--> ?PR?_DO_LINK_UP?PHYTSK
  +--> ?PR?_PHY_WRITE_MASKED?PHYDRV
  +--> ?PR?_DO_LINK_DOWN?PHYTSK
  +--> ?PR?_CPORT2UPORT?HWPORT
  +--> ?PR?_PRINT_DEC_8_RIGHT_2?PRINT
  +--> ?PR?_PHY_LINK_MODE_GET?PHYTSK
  +--> ?PR?_PHY_READ?PHYDRV

?PR?_PHY_RESTART_ANEG?PHYDRV                     -----    -----      -----    -----      -----    -----
  +--> ?PR?_PHY_WRITE_MASKED?PHYDRV
  +--> ?PR?_DELAY_1?TIMER

?PR?_PHY_DO_LINK_UP_SETTINGS?PHYDRV              -----    -----      -----    -----      E2D1H    0003H
  +--> ?PR?PHYDRV
  +--> ?PR?_PHY_WRITE_MASKED?PHYDRV
  +--> ?PR?_PHY_RECEIVER_RECONFIG?PHYDRV

?PR?_PHY_RECEIVER_RECONFIG?PHYDRV                -----    -----      -----    -----      E2D4H    0008H
  +--> ?PR?_PHY_READ_ID?PHY_BASE
  +--> ?PR?_PHY_PAGE_TR?PHYDRV
  +--> ?PR?_PHY_WRITE?PHYDRV
  +--> ?PR?_PHY_READ?PHYDRV
  +--> ?PR?_PHY_PAGE_TP?PHYDRV
  +--> ?PR?PHYDRV
  +--> ?PR?_PHY_WRITE_MASKED?PHYDRV
  +--> ?PR?_PHY_PAGE_STD?PHYDRV

BL51 BANKED LINKER/LOCATER V6.22.2.0                                                  11/30/2021  16:22:28  PAGE 23


?PR?_PHY_PAGE_TP?PHYDRV                          -----    -----      -----    -----      -----    -----
  +--> ?PR?_PHY_WRITE?PHYDRV

?PR?_DO_LINK_UP?PHYTSK                           -----    -----      -----    -----      E2DAH    0002H
  +--> ?PR?PHYTSK
  +--> ?PR?VTSS_UPDATE_MASKS?H2
  +--> ?PR?_PHY_READ?PHYDRV
  +--> ?PR?_CALLBACK_LINK_UP?EVENT

?PR?_CALLBACK_LINK_UP?EVENT                      -----    -----      -----    -----      -----    -----
  +--> ?PR?LED_REFRESH?LEDTSK

?PR?_PHY_LINK_MODE_GET?PHYTSK                    -----    -----      -----    -----      E2D1H    0002H
  +--> ?PR?_PHY_LINK_STATUS?PHYDRV
  +--> ?PR?_PHY_GET_SPEED_AND_FDX?PHYDRV
  +--> ?PR?_PHY_READ?PHYDRV
  +--> ?PR?_PHY_MMD_RD?PHYDRV

?PR?_PHY_LINK_STATUS?PHYDRV                      -----    -----      -----    -----      -----    -----
  +--> ?PR?_PHY_READ?PHYDRV

?PR?_PHY_GET_SPEED_AND_FDX?PHYDRV                -----    -----      -----    -----      -----    -----
  +--> ?PR?_PHY_READ?PHYDRV

?PR?_PHY_MMD_RD?PHYDRV                           -----    -----      -----    -----      E2D3H    0005H
  +--> ?PR?_PHY_PAGE_STD?PHYDRV
  +--> ?PR?_PHY_WRITE?PHYDRV
  +--> ?PR?_PHY_READ?PHYDRV

?PR?_HANDLE_SERDES?PHYTSK                        -----    -----      -----    -----      E2CCH    000EH
  +--> ?PR?PHYTSK
  +--> ?PR?__SFP_TX_DISABLE_SET?PHYTSK
  +--> ?PR?_H2_PCS1G_CLOCK_SET?H2PCS1G
  +--> ?PR?_DELAY_1?TIMER
  +--> ?PR?_SFP_DETECT?PHYTSK
  +--> ?PR?_PHY_MAP_SERDES_IF_RESTORE?PHYMAP
  +--> ?PR?_PHY_MAP_SERDES_IF_UPDATE?PHYMAP
  +--> ?PR?_H2_SD6G_CFG_CHANGE?H2SDCFG
  +--> ?PR?_H2_SD1G_CFG?H2SDCFG
  +--> ?PR?_H2_PCS1G_SETUP?H2PCS1G
  +--> ?PR?_PHY_FLOWCONTROL_GET?PHYTSK
  +--> ?PR?_H2_PCS1G_CLAUSE_37_CONTROL_SET?H...
  +--> ?PR?_H2_SETUP_PORT?H2
  +--> ?PR?_H2_WRITE_MASKED?H2IOUTIL
  +--> ?CO?PHYTSK
  +--> ?PR?_PRINT_STR?PRINT
  +--> ?PR?_PRINTLN_STR?PRINT
  +--> ?PR?_DO_LINK_UP?PHYTSK
  +--> ?PR?_SERDES_PORT_SFP_DETECT?PHYTSK
  +--> ?PR?_DO_LINK_DOWN?PHYTSK
  +--> ?PR?PRINT_CR_LF?PRINT
  +--> ?PR?_CPORT2UPORT?HWPORT
  +--> ?PR?_PRINT_DEC_8_RIGHT_2?PRINT
  +--> ?PR?_SERDES_LINK_MODE_GET?PHYTSK
  +--> ?PR?_PHY_MAP_MIIM_NO?PHYMAP

?PR?_SFP_DETECT?PHYTSK                           -----    -----      -----    -----      E2DAH    001FH
BL51 BANKED LINKER/LOCATER V6.22.2.0                                                  11/30/2021  16:22:28  PAGE 24


  +--> ?CO?PHYTSK
  +--> ?PR?_PRINT_STR?PRINT
  +--> ?PR?_PRINT_HEX_B?PRINT
  +--> ?PR?PRINT_CR_LF?PRINT
  +--> ?PR?_SFP_I2C_READ?PHYTSK

?PR?_SFP_I2C_READ?PHYTSK                         -----    -----      -----    -----      E2F9H    0008H
  +--> ?PR?_PHY_MAP_SERDES?PHYMAP
  +--> ?PR?_PHY_MAP_PHY_NO?PHYMAP
  +--> ?PR?_I2C_TX?I2C_H
  +--> ?PR?PHYTSK
  +--> ?PR?_I2C_RX?I2C_H

?PR?_I2C_TX?I2C_H                                -----    -----      -----    -----      E301H    000FH
  +--> ?PR?I2C_H
  +--> ?PR?_I2C_SET_GPIO_ALT?I2C_H
  +--> ?PR?_I2C_SET_TAR_REGISTER?I2C_H
  +--> ?PR?WAIT_FOR_TX_BUFFER_EMPTY?I2C_H
  +--> ?PR?_TX_I2C_DATA?I2C_H
  +--> ?PR?_DELAY?TIMER

?PR?_I2C_SET_GPIO_ALT?I2C_H                      -----    -----      -----    -----      E31EH    0001H
  +--> ?PR?I2C_H
  +--> ?PR?_H2_WRITE_MASKED?H2IOUTIL

?PR?_I2C_SET_TAR_REGISTER?I2C_H                  -----    -----      -----    -----      E31EH    000AH
  +--> ?PR?I2C_H
  +--> ?CO?I2C_H
  +--> ?PR?_PRINTLN_STR?PRINT

?PR?WAIT_FOR_TX_BUFFER_EMPTY?I2C_H               -----    -----      -----    -----      E31EH    0004H
  +--> ?PR?_START_TIMER?TIMER
  +--> ?PR?I2C_H
  +--> ?PR?TIMEOUT?TIMER
  +--> ?CO?I2C_H
  +--> ?PR?_PRINTLN_STR?PRINT

?PR?_TX_I2C_DATA?I2C_H                           -----    -----      -----    -----      E31EH    0008H
  +--> ?PR?_START_TIMER?TIMER
  +--> ?PR?I2C_H
  +--> ?PR?TIMEOUT?TIMER
  +--> ?CO?I2C_H
  +--> ?PR?_PRINTLN_STR?PRINT

?PR?_I2C_RX?I2C_H                                -----    -----      -----    -----      E301H    001DH
  +--> ?PR?I2C_H
  +--> ?PR?_I2C_SET_GPIO_ALT?I2C_H
  +--> ?PR?_I2C_SET_TAR_REGISTER?I2C_H
  +--> ?PR?WAIT_FOR_TX_BUFFER_EMPTY?I2C_H
  +--> ?PR?_TX_I2C_DATA?I2C_H
  +--> ?CO?I2C_H
  +--> ?PR?_PRINTLN_STR?PRINT
  +--> ?PR?_START_TIMER?TIMER
  +--> ?PR?TIMEOUT?TIMER
  +--> ?PR?_PRINT_STR?PRINT
  +--> ?PR?_PRINT_DEC?PRINT
  +--> ?PR?PRINT_CR_LF?PRINT
BL51 BANKED LINKER/LOCATER V6.22.2.0                                                  11/30/2021  16:22:28  PAGE 25


  +--> ?PR?_PRINT_HEX_W?PRINT
  +--> ?PR?I2C_INIT?I2C_H
  +--> ?PR?_DELAY?TIMER
  +--> ?PR?_PRINT_HEX_DW?PRINT

?PR?_PHY_MAP_SERDES_IF_RESTORE?PHYMAP            -----    -----      002EH    000CH      -----    -----
  +--> ?CO?PHYMAP
  +--> ?PR?PHYMAP

?PR?_PHY_MAP_SERDES_IF_UPDATE?PHYMAP             -----    -----      -----    -----      -----    -----
  +--> ?PR?PHYMAP

?PR?_H2_SD6G_CFG_CHANGE?H2SDCFG                  -----    -----      -----    -----      E2DAH    0005H
  +--> ?PR?_H2_SD6G_CFG?H2SDCFG

?PR?_H2_PCS1G_SETUP?H2PCS1G                      -----    -----      -----    -----      E2DAH    0006H
  +--> ?PR?H2PCS1G
  +--> ?PR?_H2_WRITE_MASKED?H2IOUTIL
  +--> ?PR?_H2_PCS1G_CLOCK_SET?H2PCS1G

?PR?_H2_PCS1G_CLAUSE_37_CONTROL_SET?H...         -----    -----      -----    -----      E2EFH    0007H
  +--> ?PR?H2PCS1G
  +--> ?PR?_PHY_MAP_MIIM_NO?PHYMAP
  +--> ?PR?_H2_WRITE_MASKED?H2IOUTIL
  +--> ?PR?_DELAY_1?TIMER

?PR?_SERDES_PORT_SFP_DETECT?PHYTSK               -----    -----      -----    -----      E2DAH    0002H
  +--> ?PR?_PHY_MAP_SERDES?PHYMAP
  +--> ?PR?_H2_GPIO_READ?H2GPIOS

?PR?_H2_GPIO_READ?H2GPIOS                        -----    -----      -----    -----      E2DCH    0008H
  +--> ?PR?H2GPIOS

?PR?_SERDES_LINK_MODE_GET?PHYTSK                 -----    -----      -----    -----      E2DAH    0003H
  +--> ?PR?_PHY_MAP_SERDES?PHYMAP
  +--> ?PR?_PHY_MAP_MIIM_NO?PHYMAP
  +--> ?PR?_H2_PCS1G_CLAUSE_37_STATUS_GET?H2...
  +--> ?PR?_H2_PCS1G_100FX_STATUS_GET?H2PCS1G
  +--> ?PR?_H2_PCS1G_2_5G_LINK_STATUS_GET?H2...
  +--> ?PR?_DELAY_1?TIMER
  +--> ?PR?PHYTSK

?PR?_H2_PCS1G_CLAUSE_37_STATUS_GET?H2...         0020H.5  0000H.2    -----    -----      E2DDH    0012H
  +--> ?PR?H2PCS1G
  +--> ?PR?_PHY_MAP_MIIM_NO?PHYMAP
  +--> ?PR?_H2_WRITE_MASKED?H2IOUTIL
  +--> ?PR?_DELAY_1?TIMER
  +--> ?PR?_H2_PCS1G_CLAUSE_37_CONTROL_SET?H...

?PR?_H2_PCS1G_100FX_STATUS_GET?H2PCS1G           -----    -----      -----    -----      E2DDH    0009H
  +--> ?PR?H2PCS1G
  +--> ?PR?_H2_WRITE_MASKED?H2IOUTIL
  +--> ?PR?_DELAY_1?TIMER

?PR?_H2_PCS1G_2_5G_LINK_STATUS_GET?H2...         -----    -----      -----    -----      E2DDH    0009H
  +--> ?PR?H2PCS1G
  +--> ?PR?_H2_WRITE_MASKED?H2IOUTIL
BL51 BANKED LINKER/LOCATER V6.22.2.0                                                  11/30/2021  16:22:28  PAGE 26


  +--> ?PR?_DELAY_1?TIMER

?PR?HANDLE_TIMEOUT_EVENT_100MS?MAIN              -----    -----      -----    -----      -----    -----
  +--> ?PR?LED_TSK?LEDTSK

?PR?LED_TSK?LEDTSK                               -----    -----      -----    -----      -----    -----
  +--> ?PR?_LED_UPDATE_PORT_BY_TOWER_MODE?LE...

?PR?HANDLE_TIMEOUT_EVENT_1SEC?MAIN               -----    -----      -----    -----      -----    -----
  +--> ?PR?LED_1S_TIMER?LEDTSK
  +--> ?PR?ERROR_CHECK?MAIN

?PR?LED_1S_TIMER?LEDTSK                          -----    -----      -----    -----      -----    -----
  +--> ?PR?_LED_UPDATE_SYSTEM?LEDTSK

?PR?ERROR_CHECK?MAIN                             -----    -----      -----    -----      -----    -----
  +--> ?PR?PHY_CHECK_ALL?PHYTSK
  +--> ?PR?_SYSUTIL_ASSERT_EVENT_SET?SYSUTIL

?C_INITSEG                                       -----    -----      -----    -----      -----    -----
  +--> ?CO?VERSION



SYMBOL TABLE OF MODULE:  ..\obj\Ferret_Unmanaged_F5_Develop (UARTDRV)

  VALUE           TYPE          NAME
  ----------------------------------

  -------         MODULE        UARTDRV
  C:0000H         SYMBOL        _ICE_DUMMY_
  D:0090H         PUBLIC        P1
  D:00B0H         PUBLIC        P3
  B:00A8H.7       PUBLIC        EA
  I:005BH         SYMBOL        rx_buf
  D:00A8H         PUBLIC        IE
  C:86EAH         PUBLIC        _uart_put_byte
  C:7A3EH         PUBLIC        uart_interrupt
  D:00B8H         PUBLIC        IP
  B:0020H.7       PUBLIC        uart_rx_buf_overrun
  D:0098H         PUBLIC        SCON
  D:0088H         PUBLIC        TCON
  C:95C0H         PUBLIC        uart_byte_ready
  D:0053H         SYMBOL        redir_ptr
  C:5EC1H         PUBLIC        uart_init
  D:0055H         SYMBOL        rx_head
  D:00C8H         PUBLIC        T2CON
  D:0056H         SYMBOL        rx_tail
  C:9526H         PUBLIC        uart_get_byte
  D:00D0H         PUBLIC        PSW
  C:938DH         SYMBOL        Com0017
  C:938DH         SYMBOL        L?0024
  C:938DH         SYMBOL        L?0025
  C:9394H         SYMBOL        L?0026
  C:9394H         SYMBOL        L?0027
  C:939BH         SYMBOL        L?0030
  C:939BH         SYMBOL        L?0031
BL51 BANKED LINKER/LOCATER V6.22.2.0                                                  11/30/2021  16:22:28  PAGE 27


  -------         PROC          COM0017
  -------         ENDPROC       COM0017
  C:5F8DH         SYMBOL        L?0022
  C:5F9EH         SYMBOL        L?0028
  C:5FACH         SYMBOL        L?0029
  C:5FB8H         SYMBOL        L?0032
  -------         PROC          UART_INIT
  C:5EC1H         LINE#         110
  C:5EC1H         LINE#         128
  C:5ED8H         LINE#         131
  C:5EE5H         LINE#         135
  C:5EF2H         LINE#         136
  C:5EFFH         LINE#         137
  C:5F0BH         LINE#         140
  C:5F22H         LINE#         146
  C:5F34H         LINE#         149
  C:5F5EH         LINE#         152
  C:5F8DH         LINE#         190
  -------         ENDPROC       UART_INIT
  C:7ABBH         SYMBOL        L?0021
  -------         PROC          UART_INTERRUPT
  -------         DO            
  D:0007H         SYMBOL        ch
  D:0026H         SYMBOL        temp
  -------         ENDDO         
  C:7A3EH         LINE#         194
  C:7A3EH         LINE#         214
  C:7A40H         LINE#         216
  C:7A45H         LINE#         217
  C:7A53H         LINE#         219
  C:7A74H         LINE#         220
  C:7A74H         LINE#         221
  C:7A79H         LINE#         222
  C:7A79H         LINE#         224
  C:7A89H         LINE#         225
  C:7A8BH         LINE#         226
  C:7A8DH         LINE#         227
  C:7A94H         LINE#         228
  C:7A9BH         LINE#         229
  C:7A9BH         LINE#         230
  C:7AABH         LINE#         231
  C:7AB8H         LINE#         232
  C:7AB8H         LINE#         233
  C:7ABAH         LINE#         270
  -------         ENDPROC       UART_INTERRUPT
  -------         PROC          UART_BYTE_READY
  C:95C0H         LINE#         273
  C:95C0H         LINE#         282
  C:95C9H         LINE#         283
  -------         ENDPROC       UART_BYTE_READY
  -------         PROC          UART_GET_BYTE
  -------         DO            
  D:0007H         SYMBOL        tmp
  -------         ENDDO         
  C:9526H         LINE#         286
  C:9526H         LINE#         297
  C:952DH         LINE#         298
BL51 BANKED LINKER/LOCATER V6.22.2.0                                                  11/30/2021  16:22:28  PAGE 28


  C:9534H         LINE#         299
  C:9534H         LINE#         300
  -------         ENDPROC       UART_GET_BYTE
  -------         PROC          _UART_PUT_BYTE
  D:002FH         SYMBOL        ch
  -------         DO            
  D:0030H         SYMBOL        lsr
  -------         ENDDO         
  C:86EAH         LINE#         302
  C:86ECH         LINE#         306
  C:86F2H         LINE#         307
  C:8705H         LINE#         309
  C:8705H         LINE#         312
  C:8705H         LINE#         314
  C:8719H         LINE#         315
  C:8726H         LINE#         317
  C:873BH         LINE#         327
  -------         ENDPROC       _UART_PUT_BYTE
  -------         ENDMOD        UARTDRV

  -------         MODULE        TIMER
  C:0000H         SYMBOL        _ICE_DUMMY_
  D:0090H         PUBLIC        P1
  D:00B0H         PUBLIC        P3
  C:8B87H         PUBLIC        timer_1_interrupt
  C:96CCH         PUBLIC        timeout
  B:0020H.0       PUBLIC        ms_10_timeout_flag
  D:00A8H         PUBLIC        IE
  C:95CAH         PUBLIC        _delay
  X:E4BAH         SYMBOL        time_since_boot_t
  D:00B8H         PUBLIC        IP
  C:9346H         PUBLIC        _delay_1
  D:001BH         SYMBOL        timer_count
  D:0098H         PUBLIC        SCON
  D:0088H         PUBLIC        TCON
  C:9672H         PUBLIC        _start_timer
  B:0020H.1       PUBLIC        sec_1_timeout_flag
  D:001CH         PUBLIC        tick_count
  B:0020H.2       PUBLIC        ms_100_timeout_flag
  C:79ABH         PUBLIC        timer_1_init
  B:0020H.3       SYMBOL        sw_timer_active_flag
  B:0020H.4       SYMBOL        ms_1_timeout_flag
  D:00C8H         PUBLIC        T2CON
  D:00D0H         PUBLIC        PSW
  C:9679H         SYMBOL        Com0014
  C:9679H         SYMBOL        L?0021
  C:9679H         SYMBOL        L?0022
  -------         PROC          COM0014
  -------         ENDPROC       COM0014
  C:7A26H         SYMBOL        L?0019
  C:7A34H         SYMBOL        L?0023
  -------         PROC          TIMER_1_INIT
  C:79ABH         LINE#         140
  C:79ABH         LINE#         150
  C:79B8H         LINE#         155
  C:79E7H         LINE#         160
  C:7A16H         LINE#         166
BL51 BANKED LINKER/LOCATER V6.22.2.0                                                  11/30/2021  16:22:28  PAGE 29


  C:7A26H         LINE#         184
  -------         ENDPROC       TIMER_1_INIT
  -------         PROC          TIMER_1_INTERRUPT
  -------         DO            
  D:0018H         SYMBOL        ms_1_count
  D:0019H         SYMBOL        ms_10_count
  D:001AH         SYMBOL        ms_100_count
  -------         ENDDO         
  C:8B87H         LINE#         191
  C:8B87H         LINE#         201
  C:8B8FH         LINE#         202
  C:8B91H         LINE#         204
  C:8B97H         LINE#         205
  C:8B9AH         LINE#         208
  C:8B9CH         LINE#         211
  C:8BA2H         LINE#         212
  C:8BA5H         LINE#         215
  C:8BA7H         LINE#         217
  C:8BADH         LINE#         218
  C:8BB0H         LINE#         219
  C:8BB2H         LINE#         220
  C:8BB2H         LINE#         221
  C:8BB2H         LINE#         224
  C:8BB5H         LINE#         225
  C:8BBBH         LINE#         226
  C:8BBDH         LINE#         227
  C:8BBDH         LINE#         228
  C:8BBDH         LINE#         229
  C:8BBDH         LINE#         230
  -------         ENDPROC       TIMER_1_INTERRUPT
  -------         PROC          _DELAY
  D:0007H         SYMBOL        delay_in_10_msec
  C:95CAH         LINE#         244
  C:95CAH         LINE#         247
  C:95CCH         LINE#         248
  C:95CEH         LINE#         249
  C:95D0H         LINE#         252
  C:95D3H         LINE#         254
  C:95D3H         LINE#         255
  -------         ENDPROC       _DELAY
  -------         PROC          _DELAY_1
  D:0007H         SYMBOL        delay_in_1_msec
  C:9346H         LINE#         267
  C:9346H         LINE#         270
  C:9348H         LINE#         273
  C:9356H         LINE#         274
  C:9359H         LINE#         275
  C:9359H         LINE#         276
  C:935BH         LINE#         277
  C:935DH         LINE#         278
  -------         ENDPROC       _DELAY_1
  -------         PROC          _START_TIMER
  D:0007H         SYMBOL        time_in_10_msec
  C:9672H         LINE#         297
  C:9672H         LINE#         299
  C:9674H         LINE#         300
  C:9676H         LINE#         301
BL51 BANKED LINKER/LOCATER V6.22.2.0                                                  11/30/2021  16:22:28  PAGE 30


  C:9678H         LINE#         302
  -------         ENDPROC       _START_TIMER
  -------         PROC          TIMEOUT
  C:96CCH         LINE#         312
  C:96CCH         LINE#         314
  C:96CFH         LINE#         315
  -------         ENDPROC       TIMEOUT
  -------         ENDMOD        TIMER

  -------         MODULE        INTERRUPT
  C:0000H         SYMBOL        _ICE_DUMMY_
  D:0090H         PUBLIC        P1
  D:00B0H         PUBLIC        P3
  B:00A8H.7       PUBLIC        EA
  D:00A8H         PUBLIC        IE
  D:00B8H         PUBLIC        IP
  D:0098H         PUBLIC        SCON
  D:0088H         PUBLIC        TCON
  C:8338H         PUBLIC        ext_0_interrupt
  C:82D0H         PUBLIC        ext_1_interrupt
  C:9624H         PUBLIC        ext_interrupt_init
  B:00A8H.0       PUBLIC        EX0
  B:00A8H.2       PUBLIC        EX1
  B:00B8H.0       PUBLIC        PX0
  B:00B8H.2       PUBLIC        PX1
  D:00C8H         PUBLIC        T2CON
  D:00D0H         PUBLIC        PSW
  C:94F4H         SYMBOL        Com0006
  C:94F4H         SYMBOL        L?0007
  C:94FEH         SYMBOL        L?0008
  -------         PROC          COM0006
  -------         ENDPROC       COM0006
  -------         PROC          EXT_INTERRUPT_INIT
  C:9624H         LINE#         79
  C:9624H         LINE#         101
  C:9626H         LINE#         102
  C:9628H         LINE#         104
  C:962AH         LINE#         105
  C:962CH         LINE#         106
  -------         ENDPROC       EXT_INTERRUPT_INIT
  -------         PROC          EXT_1_INTERRUPT
  -------         DO            
  D:0022H         SYMBOL        ident
  -------         ENDDO         
  C:82D0H         LINE#         109
  C:82DDH         LINE#         122
  C:82DDH         LINE#         124
  C:82F1H         LINE#         126
  C:82FEH         LINE#         128
  C:8301H         LINE#         131
  C:832DH         LINE#         132
  C:832DH         LINE#         146
  -------         ENDPROC       EXT_1_INTERRUPT
  -------         PROC          EXT_0_INTERRUPT
  -------         DO            
  D:002AH         SYMBOL        ident
  -------         ENDDO         
BL51 BANKED LINKER/LOCATER V6.22.2.0                                                  11/30/2021  16:22:28  PAGE 31


  C:8338H         LINE#         149
  C:8345H         LINE#         162
  C:8345H         LINE#         163
  C:8359H         LINE#         165
  C:8366H         LINE#         167
  C:8369H         LINE#         170
  C:8395H         LINE#         171
  C:8395H         LINE#         182
  -------         ENDPROC       EXT_0_INTERRUPT
  -------         ENDMOD        INTERRUPT

  -------         MODULE        MAIN
  C:0000H         SYMBOL        _ICE_DUMMY_
  D:0090H         PUBLIC        P1
  D:00B0H         PUBLIC        P3
  C:9593H         SYMBOL        handle_timeout_event_10ms
  B:00A8H.7       PUBLIC        EA
  D:00A8H         PUBLIC        IE
  C:9587H         SYMBOL        error_check
  D:00B8H         PUBLIC        IP
  C:787CH         PUBLIC        main
  C:8FE8H         SYMBOL        handle_timeout_event_1sec
  D:0087H         PUBLIC        PCON
  D:0098H         PUBLIC        SCON
  D:0088H         PUBLIC        TCON
  C:962DH         SYMBOL        handle_timeout_event_100ms
  D:00C8H         PUBLIC        T2CON
  X:E4BEH         SYMBOL        up_time
  D:00D0H         PUBLIC        PSW
  -------         PROC          ERROR_CHECK
  C:9587H         LINE#         162
  C:9587H         LINE#         163
  C:9587H         LINE#         170
  C:958DH         LINE#         171
  C:9592H         LINE#         172
  C:9592H         LINE#         174
  -------         ENDPROC       ERROR_CHECK
  -------         PROC          HANDLE_TIMEOUT_EVENT_10MS
  C:9593H         LINE#         309
  C:9593H         LINE#         310
  C:9593H         LINE#         311
  C:9596H         LINE#         313
  C:9596H         LINE#         319
  C:9599H         LINE#         320
  C:959CH         LINE#         331
  C:959EH         LINE#         332
  -------         ENDPROC       HANDLE_TIMEOUT_EVENT_10MS
  -------         PROC          HANDLE_TIMEOUT_EVENT_100MS
  C:962DH         LINE#         334
  C:962DH         LINE#         335
  C:962DH         LINE#         336
  C:9630H         LINE#         338
  C:9630H         LINE#         341
  C:9633H         LINE#         353
  C:9635H         LINE#         354
  -------         ENDPROC       HANDLE_TIMEOUT_EVENT_100MS
  -------         PROC          HANDLE_TIMEOUT_EVENT_1SEC
BL51 BANKED LINKER/LOCATER V6.22.2.0                                                  11/30/2021  16:22:28  PAGE 32


  C:8FE8H         LINE#         356
  C:8FE8H         LINE#         357
  C:8FE8H         LINE#         358
  C:8FEBH         LINE#         360
  C:8FEBH         LINE#         363
  C:8FEEH         LINE#         380
  C:8FF1H         LINE#         396
  C:8FF1H         LINE#         399
  C:8FF3H         LINE#         400
  C:900CH         LINE#         401
  -------         ENDPROC       HANDLE_TIMEOUT_EVENT_1SEC
  -------         PROC          MAIN
  -------         DO            
  X:E2C9H         SYMBOL        hw_ver
  -------         ENDDO         
  C:787CH         LINE#         469
  C:787CH         LINE#         470
  C:787CH         LINE#         486
  C:7884H         LINE#         516
  C:789AH         LINE#         520
  C:789DH         LINE#         524
  C:78A0H         LINE#         528
  C:78A3H         LINE#         536
  C:78A5H         LINE#         539
  C:78AAH         LINE#         542
  C:78ADH         LINE#         543
  C:78B0H         LINE#         544
  C:78B3H         LINE#         545
  C:78B6H         LINE#         546
  C:78B9H         LINE#         547
  C:78BCH         LINE#         556
  C:78BFH         LINE#         559
  C:78C2H         LINE#         566
  C:78C5H         LINE#         571
  C:78CBH         LINE#         575
  C:78CBH         LINE#         576
  C:78CEH         LINE#         577
  C:78CEH         LINE#         582
  C:78D1H         LINE#         585
  C:78D4H         LINE#         593
  C:78DAH         LINE#         594
  C:78DDH         LINE#         595
  C:78DDH         LINE#         599
  C:78E0H         LINE#         655
  C:78E3H         LINE#         659
  C:78E6H         LINE#         660
  C:78EFH         LINE#         661
  C:78F4H         LINE#         673
  C:78F4H         LINE#         689
  C:78F4H         LINE#         691
  C:78F4H         LINE#         694
  C:78FAH         LINE#         695
  C:78FDH         LINE#         699
  C:7900H         LINE#         703
  C:7906H         LINE#         704
  C:7906H         LINE#         721
  C:7909H         LINE#         724
BL51 BANKED LINKER/LOCATER V6.22.2.0                                                  11/30/2021  16:22:28  PAGE 33


  C:790CH         LINE#         727
  C:790FH         LINE#         730
  C:790FH         LINE#         736
  C:7912H         LINE#         737
  C:7912H         LINE#         739
  -------         ENDPROC       MAIN
  -------         ENDMOD        MAIN

  -------         MODULE        SYSUTIL
  C:0000H         SYMBOL        _ICE_DUMMY_
  D:0090H         PUBLIC        P1
  D:00B0H         PUBLIC        P3
  B:00A8H.7       PUBLIC        EA
  D:00A8H         PUBLIC        IE
  C:965AH         PUBLIC        sysutil_reboot
  C:94BEH         PUBLIC        sysutil_show_compile_date
  D:00B8H         PUBLIC        IP
  X:E4C2H         SYMBOL        g_suspend_enable
  C:8FC2H         PUBLIC        sysutil_hang
  C:96AEH         PUBLIC        sysutil_get_suspend
  D:00F2H         PUBLIC        MMAP
  D:0098H         PUBLIC        SCON
  D:0088H         PUBLIC        TCON
  C:94D0H         PUBLIC        sysutil_show_hw_ver
  C:96A8H         PUBLIC        _sysutil_set_suspend
  C:9056H         PUBLIC        sysutil_show_sw_ver
  C:96A2H         PUBLIC        sysutil_assert_event_get
  C:969CH         PUBLIC        _sysutil_assert_event_set
  X:E4C3H         SYMBOL        sys_assert_event
  D:00C8H         PUBLIC        T2CON
  D:00D0H         PUBLIC        PSW
  C:7F8DH         PUBLIC        sysutil_show_chip_id
  C:95D4H         SYMBOL        Com0012
  C:95D4H         SYMBOL        L?0019
  C:95D4H         SYMBOL        L?0020
  -------         PROC          COM0012
  -------         ENDPROC       COM0012
  -------         PROC          SYSUTIL_REBOOT
  C:965AH         LINE#         78
  C:965AH         LINE#         79
  C:965AH         LINE#         80
  C:965DH         LINE#         81
  C:9660H         LINE#         82
  -------         ENDPROC       SYSUTIL_REBOOT
  -------         PROC          SYSUTIL_HANG
  -------         DO            
  X:E2CAH         SYMBOL        sys_assert_event_t
  -------         ENDDO         
  C:8FC2H         LINE#         88
  C:8FC2H         LINE#         89
  C:8FC2H         LINE#         90
  C:8FCAH         LINE#         92
  C:8FCAH         LINE#         94
  C:8FCFH         LINE#         97
  C:8FD8H         LINE#         98
  C:8FE0H         LINE#         101
  C:8FE3H         LINE#         104
BL51 BANKED LINKER/LOCATER V6.22.2.0                                                  11/30/2021  16:22:28  PAGE 34


  C:8FE6H         LINE#         106
  -------         ENDPROC       SYSUTIL_HANG
  -------         PROC          _SYSUTIL_ASSERT_EVENT_SET
  D:0007H         SYMBOL        err_id
  C:969CH         LINE#         112
  C:969CH         LINE#         113
  C:969CH         LINE#         115
  C:96A1H         LINE#         116
  -------         ENDPROC       _SYSUTIL_ASSERT_EVENT_SET
  -------         PROC          SYSUTIL_ASSERT_EVENT_GET
  C:96A2H         LINE#         118
  C:96A2H         LINE#         119
  C:96A2H         LINE#         120
  C:96A7H         LINE#         121
  -------         ENDPROC       SYSUTIL_ASSERT_EVENT_GET
  -------         PROC          _SYSUTIL_SET_SUSPEND
  D:0007H         SYMBOL        enable
  C:96A8H         LINE#         123
  C:96A8H         LINE#         124
  C:96A8H         LINE#         125
  C:96ADH         LINE#         126
  -------         ENDPROC       _SYSUTIL_SET_SUSPEND
  -------         PROC          SYSUTIL_GET_SUSPEND
  C:96AEH         LINE#         128
  C:96AEH         LINE#         129
  C:96AEH         LINE#         130
  C:96B3H         LINE#         131
  -------         ENDPROC       SYSUTIL_GET_SUSPEND
  -------         PROC          SYSUTIL_SHOW_COMPILE_DATE
  C:94BEH         LINE#         133
  C:94BEH         LINE#         134
  C:94BEH         LINE#         135
  C:94C7H         LINE#         136
  -------         ENDPROC       SYSUTIL_SHOW_COMPILE_DATE
  -------         PROC          SYSUTIL_SHOW_SW_VER
  C:9056H         LINE#         139
  C:9056H         LINE#         140
  C:9056H         LINE#         142
  C:905FH         LINE#         143
  C:9068H         LINE#         146
  C:9071H         LINE#         147
  -------         ENDPROC       SYSUTIL_SHOW_SW_VER
  -------         PROC          SYSUTIL_SHOW_HW_VER
  -------         DO            
  D:0007H         SYMBOL        hw_ver
  -------         ENDDO         
  C:94D0H         LINE#         150
  C:94D0H         LINE#         151
  C:94D0H         LINE#         154
  C:94D9H         LINE#         155
  C:94DCH         LINE#         156
  C:94DFH         LINE#         157
  -------         ENDPROC       SYSUTIL_SHOW_HW_VER
  -------         PROC          SYSUTIL_SHOW_CHIP_ID
  -------         DO            
  X:E2D1H         SYMBOL        chip_id
  X:E2D5H         SYMBOL        rev
BL51 BANKED LINKER/LOCATER V6.22.2.0                                                  11/30/2021  16:22:28  PAGE 35


  -------         ENDDO         
  C:7F8DH         LINE#         160
  C:7F8DH         LINE#         161
  C:7F8DH         LINE#         162
  C:7F8DH         LINE#         165
  C:7FA2H         LINE#         166
  C:7FB8H         LINE#         169
  C:7FC1H         LINE#         170
  C:7FE5H         LINE#         171
  C:7FECH         LINE#         173
  C:7FF5H         LINE#         174
  C:7FFDH         LINE#         175
  C:7FFDH         LINE#         176
  C:7FFFH         LINE#         177
  C:7FFFH         LINE#         178
  C:8006H         LINE#         179
  C:8009H         LINE#         180
  C:8009H         LINE#         181
  -------         ENDPROC       SYSUTIL_SHOW_CHIP_ID
  -------         ENDMOD        SYSUTIL

  -------         MODULE        EVENT
  C:0000H         SYMBOL        _ICE_DUMMY_
  D:0090H         PUBLIC        P1
  D:00B0H         PUBLIC        P3
  C:96D0H         PUBLIC        _callback_link_up
  D:00A8H         PUBLIC        IE
  D:00B8H         PUBLIC        IP
  D:0098H         PUBLIC        SCON
  D:0088H         PUBLIC        TCON
  C:96D3H         PUBLIC        _callback_link_down
  D:00C8H         PUBLIC        T2CON
  D:00D0H         PUBLIC        PSW
  -------         PROC          _CALLBACK_LINK_UP
  X:0000H         SYMBOL        chip_port
  C:96D0H         LINE#         115
  C:96D0H         LINE#         116
  C:96D0H         LINE#         117
  C:96D0H         LINE#         120
  -------         ENDPROC       _CALLBACK_LINK_UP
  -------         PROC          _CALLBACK_LINK_DOWN
  X:0000H         SYMBOL        chip_port
  C:96D3H         LINE#         146
  C:96D3H         LINE#         147
  C:96D3H         LINE#         148
  C:96D3H         LINE#         151
  -------         ENDPROC       _CALLBACK_LINK_DOWN
  -------         ENDMOD        EVENT

  -------         MODULE        ?C_STARTUP
  C:6650H         SEGMENT       ?C_C51STARTUP
  I:008BH         SEGMENT       ?STACK
  C:0000H         PUBLIC        ?C_STARTUP
  D:00E0H         SYMBOL        ACC
  D:008EH         SYMBOL        AUXR
  D:00F0H         SYMBOL        B
  D:0083H         SYMBOL        DPH
BL51 BANKED LINKER/LOCATER V6.22.2.0                                                  11/30/2021  16:22:28  PAGE 36


  D:0082H         SYMBOL        DPL
  D:00C0H         SYMBOL        EPAGE_SEL
  D:0080H         SYMBOL        GPR
  B:0080H.0       SYMBOL        GPR_0
  B:0080H.1       SYMBOL        GPR_1
  B:0080H.2       SYMBOL        GPR_2
  B:0080H.3       SYMBOL        GPR_3
  B:0080H.4       SYMBOL        GPR_4
  B:0080H.5       SYMBOL        GPR_5
  B:0080H.6       SYMBOL        GPR_6
  B:0080H.7       SYMBOL        GPR_7
  C:6670H         SYMBOL        HW_INIT
  N:0000H         SYMBOL        IBPSTACK
  N:0100H         SYMBOL        IBPSTACKTOP
  N:00FFH         SYMBOL        IDATALEN
  C:6659H         SYMBOL        IDATALOOP
  B:0090H.6       SYMBOL        MISO
  D:00F2H         SYMBOL        MMAP
  B:0090H.5       SYMBOL        MOSI
  D:00B0H         SYMBOL        PAGE_SEL
  N:0000H         SYMBOL        PBPSTACK
  N:0000H         SYMBOL        PBPSTACKTOP
  N:0000H         SYMBOL        PDATALEN
  N:0000H         SYMBOL        PDATASTART
  B:00B0H.4       SYMBOL        PG_IFP_0
  B:00B0H.5       SYMBOL        PG_IFP_1
  B:00B0H.6       SYMBOL        PG_IFP_2
  B:00B0H.7       SYMBOL        PG_IFP_3
  B:00B0H.0       SYMBOL        PG_OP_0
  B:00B0H.1       SYMBOL        PG_OP_1
  B:00B0H.2       SYMBOL        PG_OP_2
  B:00B0H.3       SYMBOL        PG_OP_3
  N:0000H         SYMBOL        PPAGE
  N:0000H         SYMBOL        PPAGEENABLE
  D:00A0H         SYMBOL        PPAGE_SFR
  D:00F6H         SYMBOL        RA_AD0_RD
  D:00F7H         SYMBOL        RA_AD0_WR
  D:00F9H         SYMBOL        RA_AD1
  D:00FAH         SYMBOL        RA_AD2
  D:00FBH         SYMBOL        RA_AD3
  D:00F4H         SYMBOL        RA_CTRL
  D:00FCH         SYMBOL        RA_DA0
  D:00FDH         SYMBOL        RA_DA1
  D:00FEH         SYMBOL        RA_DA2
  D:00FFH         SYMBOL        RA_DA3
  B:0090H.7       SYMBOL        SCK
  D:0081H         SYMBOL        SP
  D:00D5H         SYMBOL        SPCR
  D:0086H         SYMBOL        SPDR
  D:00AAH         SYMBOL        SPSR
  B:0090H.4       SYMBOL        SS
  C:6650H         SYMBOL        STARTUP1
  N:0000H         SYMBOL        XBPSTACK
  N:0000H         SYMBOL        XBPSTACKTOP
  N:2000H         SYMBOL        XDATALEN
  C:6664H         SYMBOL        XDATALOOP
  N:E000H         SYMBOL        XDATASTART
BL51 BANKED LINKER/LOCATER V6.22.2.0                                                  11/30/2021  16:22:28  PAGE 37


  C:0000H         LINE#         94
  C:6650H         LINE#         99
  C:6653H         LINE#         100
  C:6656H         LINE#         103
  C:6658H         LINE#         104
  C:6659H         LINE#         105
  C:665AH         LINE#         106
  C:665CH         LINE#         112
  C:665FH         LINE#         113
  C:6661H         LINE#         117
  C:6663H         LINE#         119
  C:6664H         LINE#         120
  C:6665H         LINE#         121
  C:6666H         LINE#         122
  C:6668H         LINE#         123
  C:666AH         LINE#         158
  C:666DH         LINE#         164
  C:6670H         LINE#         168
  C:6673H         LINE#         169
  C:6676H         LINE#         170
  C:6679H         LINE#         171
  C:667CH         LINE#         172
  C:667FH         LINE#         173
  C:6682H         LINE#         174
  C:6685H         LINE#         175
  C:6688H         LINE#         180
  C:668BH         LINE#         181
  C:668EH         LINE#         182
  C:6691H         LINE#         183
  C:6694H         LINE#         187
  C:6697H         LINE#         192
  C:669AH         LINE#         193
  C:669DH         LINE#         195
  C:66A0H         LINE#         199
  C:66A3H         LINE#         203
  C:66A6H         LINE#         208
  C:66A9H         LINE#         219
  -------         ENDMOD        ?C_STARTUP

  -------         MODULE        VTSS_OS
  C:0000H         SYMBOL        _ICE_DUMMY_
  D:0090H         PUBLIC        P1
  D:00B0H         PUBLIC        P3
  X:E4C4H         PUBLIC        vtss_os_trace_level
  D:00A8H         PUBLIC        IE
  D:00B8H         PUBLIC        IP
  D:0098H         PUBLIC        SCON
  D:0088H         PUBLIC        TCON
  D:00C8H         PUBLIC        T2CON
  D:00D0H         PUBLIC        PSW
  -------         ENDMOD        VTSS_OS

  -------         MODULE        I2C_H
  C:0000H         SYMBOL        _ICE_DUMMY_
  D:0090H         PUBLIC        P1
  D:00B0H         PUBLIC        P3
  B:00A8H.7       PUBLIC        EA
BL51 BANKED LINKER/LOCATER V6.22.2.0                                                  11/30/2021  16:22:28  PAGE 38


  D:00A8H         PUBLIC        IE
  C:5A3FH         PUBLIC        i2c_init
  D:00B8H         PUBLIC        IP
  C:8D58H         SYMBOL        wait_for_tx_buffer_empty
  C:74C7H         PUBLIC        _i2c_set_tar_register
  D:0098H         PUBLIC        SCON
  D:0088H         PUBLIC        TCON
  C:863FH         SYMBOL        _tx_i2c_data
  C:2597H         PUBLIC        _i2c_rx
  C:76AAH         PUBLIC        _i2c_tx
  C:672AH         SYMBOL        _i2c_set_gpio_alt
  D:00C8H         PUBLIC        T2CON
  D:00D0H         PUBLIC        PSW
  C:6D4CH         SYMBOL        Com0044
  C:6D4CH         SYMBOL        L?0069
  C:6D4CH         SYMBOL        L?0070
  C:6D50H         SYMBOL        L?0071
  C:6D57H         SYMBOL        L?0077
  C:6D5DH         SYMBOL        L?0078
  C:6D60H         SYMBOL        L?0079
  C:6D6DH         SYMBOL        L?0081
  C:6D70H         SYMBOL        L?0082
  C:6D78H         SYMBOL        L?0085
  C:6D7AH         SYMBOL        L?0086
  C:6D7EH         SYMBOL        L?0087
  C:6D85H         SYMBOL        L?0089
  C:6D8AH         SYMBOL        L?0090
  C:6D91H         SYMBOL        L?0091
  C:6D99H         SYMBOL        L?0092
  C:6D9FH         SYMBOL        L?0093
  C:6DB3H         SYMBOL        L?0095
  C:6DC4H         SYMBOL        L?0098
  C:6DC7H         SYMBOL        L?0099
  C:6DCEH         SYMBOL        L?0100
  C:6DCEH         SYMBOL        L?0101
  C:6DD5H         SYMBOL        L?0102
  C:6DE1H         SYMBOL        L?0103
  C:6DE1H         SYMBOL        L?0104
  C:6DE8H         SYMBOL        L?0106
  C:6DF1H         SYMBOL        L?0107
  C:6DFAH         SYMBOL        L?0108
  C:6DFAH         SYMBOL        L?0109
  -------         PROC          COM0044
  -------         ENDPROC       COM0044
  C:755FH         SYMBOL        L?0105
  -------         PROC          _I2C_SET_TAR_REGISTER
  X:E31EH         SYMBOL        i2c_addr
  -------         DO            
  X:E320H         SYMBOL        value
  X:E324H         SYMBOL        value1
  -------         ENDDO         
  C:74C7H         LINE#         42
  C:74CFH         LINE#         43
  C:74CFH         LINE#         44
  C:74CFH         LINE#         47
  C:74D9H         LINE#         54
  C:74F1H         LINE#         55
BL51 BANKED LINKER/LOCATER V6.22.2.0                                                  11/30/2021  16:22:28  PAGE 39


  C:74F1H         LINE#         60
  C:74FBH         LINE#         61
  C:7509H         LINE#         63
  C:7521H         LINE#         64
  C:752AH         LINE#         65
  C:752AH         LINE#         68
  C:753EH         LINE#         71
  C:754EH         LINE#         74
  C:755EH         LINE#         75
  C:755EH         LINE#         76
  -------         ENDPROC       _I2C_SET_TAR_REGISTER
  -------         PROC          WAIT_FOR_TX_BUFFER_EMPTY
  -------         DO            
  X:E31EH         SYMBOL        value
  -------         ENDDO         
  C:8D58H         LINE#         82
  C:8D58H         LINE#         83
  C:8D58H         LINE#         88
  C:8D5DH         LINE#         90
  C:8D5DH         LINE#         91
  C:8D6BH         LINE#         92
  C:8D70H         LINE#         94
  C:8D79H         LINE#         95
  C:8D7DH         LINE#         96
  C:8D7DH         LINE#         97
  C:8D85H         LINE#         99
  C:8D88H         LINE#         100
  -------         ENDPROC       WAIT_FOR_TX_BUFFER_EMPTY
  -------         PROC          _TX_I2C_DATA
  X:E31EH         SYMBOL        tx_data
  -------         DO            
  X:E322H         SYMBOL        value
  -------         ENDDO         
  C:863FH         LINE#         103
  C:8645H         LINE#         104
  C:8645H         LINE#         107
  C:864AH         LINE#         110
  C:864AH         LINE#         111
  C:8658H         LINE#         112
  C:865DH         LINE#         114
  C:8666H         LINE#         115
  C:866AH         LINE#         116
  C:866AH         LINE#         117
  C:867CH         LINE#         120
  C:8691H         LINE#         127
  C:8695H         LINE#         128
  -------         ENDPROC       _TX_I2C_DATA
  C:67BCH         SYMBOL        L?0075
  C:67E7H         SYMBOL        L?0083
  -------         PROC          _I2C_SET_GPIO_ALT
  D:0007H         SYMBOL        set
  X:E31EH         SYMBOL        i2c_scl_gpio
  C:672AH         LINE#         131
  C:672FH         LINE#         132
  C:672FH         LINE#         139
  C:6732H         LINE#         140
  C:6764H         LINE#         141
BL51 BANKED LINKER/LOCATER V6.22.2.0                                                  11/30/2021  16:22:28  PAGE 40


  C:6770H         LINE#         142
  C:6775H         LINE#         143
  C:6777H         LINE#         144
  C:678DH         LINE#         145
  C:679BH         LINE#         146
  C:67BBH         LINE#         147
  C:67BBH         LINE#         148
  -------         ENDPROC       _I2C_SET_GPIO_ALT
  C:5B46H         SYMBOL        L?0073
  C:5B5DH         SYMBOL        L?0096
  -------         PROC          I2C_INIT
  -------         DO            
  D:0004H         SYMBOL        register_value
  X:E31EH         SYMBOL        clk_freq
  -------         ENDDO         
  C:5A3FH         LINE#         153
  C:5A3FH         LINE#         154
  C:5A3FH         LINE#         161
  C:5A49H         LINE#         169
  C:5A59H         LINE#         170
  C:5A63H         LINE#         178
  C:5A6DH         LINE#         179
  C:5A77H         LINE#         187
  C:5A90H         LINE#         188
  C:5AA2H         LINE#         196
  C:5AB5H         LINE#         197
  C:5AC2H         LINE#         205
  C:5AD6H         LINE#         206
  C:5AE3H         LINE#         215
  C:5AE7H         LINE#         216
  C:5AE9H         LINE#         217
  C:5AEDH         LINE#         218
  C:5AF1H         LINE#         219
  C:5AF5H         LINE#         220
  C:5AF9H         LINE#         221
  C:5AFDH         LINE#         222
  C:5B02H         LINE#         224
  C:5B11H         LINE#         232
  C:5B28H         LINE#         233
  C:5B35H         LINE#         247
  C:5B45H         LINE#         248
  -------         ENDPROC       I2C_INIT
  -------         PROC          _I2C_TX
  X:E301H         SYMBOL        i2c_scl_gpio
  X:E302H         SYMBOL        i2c_addr
  X:E303H         SYMBOL        tx_data
  X:E306H         SYMBOL        count
  -------         DO            
  X:E30AH         SYMBOL        bytes_transmitted
  X:E30EH         SYMBOL        tx_byte
  -------         ENDDO         
  C:76AAH         LINE#         253
  C:76B0H         LINE#         257
  C:76B0H         LINE#         258
  C:76BAH         LINE#         261
  C:76C2H         LINE#         265
  C:76C7H         LINE#         266
BL51 BANKED LINKER/LOCATER V6.22.2.0                                                  11/30/2021  16:22:28  PAGE 41


  C:76C7H         LINE#         281
  C:76D1H         LINE#         287
  C:76D8H         LINE#         288
  C:76F7H         LINE#         293
  C:770CH         LINE#         295
  C:770CH         LINE#         296
  C:770CH         LINE#         298
  C:7716H         LINE#         299
  C:7722H         LINE#         301
  C:772EH         LINE#         302
  C:772EH         LINE#         310
  C:7733H         LINE#         311
  C:773BH         LINE#         315
  C:7740H         LINE#         316
  C:7740H         LINE#         317
  -------         ENDPROC       _I2C_TX
  C:28C3H         SYMBOL        L?0055
  C:28D7H         SYMBOL        L?0056
  C:28EBH         SYMBOL        L?0057
  C:2901H         SYMBOL        L?0058
  C:2913H         SYMBOL        L?0059
  C:2925H         SYMBOL        L?0060
  C:2937H         SYMBOL        L?0061
  C:2949H         SYMBOL        L?0062
  C:295BH         SYMBOL        L?0063
  C:296DH         SYMBOL        L?0064
  C:297FH         SYMBOL        L?0065
  C:2991H         SYMBOL        L?0066
  C:29A3H         SYMBOL        L?0067
  C:29B5H         SYMBOL        L?0072
  C:29C7H         SYMBOL        L?0074
  C:29D9H         SYMBOL        L?0076
  C:29E5H         SYMBOL        L?0080
  C:29F1H         SYMBOL        L?0084
  C:2A01H         SYMBOL        L?0088
  C:2A19H         SYMBOL        L?0094
  C:2A25H         SYMBOL        L?0097
  -------         PROC          _I2C_RX
  X:E301H         SYMBOL        i2c_scl_gpio
  X:E302H         SYMBOL        i2c_addr
  X:E303H         SYMBOL        rx_data
  X:E306H         SYMBOL        count
  -------         DO            
  X:E30AH         SYMBOL        bytes_recieved
  X:E30EH         SYMBOL        value
  X:E312H         SYMBOL        rx_byte
  X:E316H         SYMBOL        byte_left
  X:E318H         SYMBOL        i
  -------         DO            
  X:E31AH         SYMBOL        reg_val
  -------         ENDDO         
  -------         ENDDO         
  C:2597H         LINE#         335
  C:259DH         LINE#         339
  C:259DH         LINE#         340
  C:25A7H         LINE#         343
  C:25AEH         LINE#         350
BL51 BANKED LINKER/LOCATER V6.22.2.0                                                  11/30/2021  16:22:28  PAGE 42


  C:25B3H         LINE#         354
  C:25B8H         LINE#         355
  C:25B8H         LINE#         370
  C:25C2H         LINE#         374
  C:25CDH         LINE#         375
  C:25E2H         LINE#         376
  C:25E2H         LINE#         377
  C:25EDH         LINE#         378
  C:25F9H         LINE#         380
  C:2606H         LINE#         381
  C:2611H         LINE#         382
  C:2618H         LINE#         383
  C:2627H         LINE#         384
  C:2630H         LINE#         385
  C:2635H         LINE#         389
  C:263AH         LINE#         390
  C:263AH         LINE#         391
  C:263DH         LINE#         392
  C:263DH         LINE#         393
  C:263DH         LINE#         394
  C:263DH         LINE#         395
  C:2646H         LINE#         396
  C:2646H         LINE#         398
  C:264EH         LINE#         402
  C:2653H         LINE#         403
  C:2665H         LINE#         404
  C:2665H         LINE#         405
  C:266FH         LINE#         406
  C:267AH         LINE#         407
  C:267CH         LINE#         409
  C:267CH         LINE#         410
  C:2688H         LINE#         411
  C:268FH         LINE#         412
  C:268FH         LINE#         414
  C:269BH         LINE#         416
  C:269BH         LINE#         417
  C:269EH         LINE#         421
  C:26A6H         LINE#         423
  C:26BBH         LINE#         424
  C:26BEH         LINE#         429
  C:26C2H         LINE#         430
  C:26CCH         LINE#         432
  C:26D0H         LINE#         433
  C:26DAH         LINE#         435
  C:26E1H         LINE#         436
  C:26E5H         LINE#         438
  C:26EDH         LINE#         439
  C:26F1H         LINE#         441
  C:26F9H         LINE#         442
  C:2700H         LINE#         444
  C:2707H         LINE#         445
  C:270EH         LINE#         447
  C:2715H         LINE#         448
  C:271CH         LINE#         450
  C:2723H         LINE#         451
  C:272AH         LINE#         453
  C:2731H         LINE#         454
BL51 BANKED LINKER/LOCATER V6.22.2.0                                                  11/30/2021  16:22:28  PAGE 43


  C:2738H         LINE#         456
  C:273FH         LINE#         457
  C:2746H         LINE#         459
  C:274DH         LINE#         460
  C:2754H         LINE#         462
  C:275BH         LINE#         463
  C:2762H         LINE#         465
  C:276CH         LINE#         466
  C:2773H         LINE#         468
  C:277DH         LINE#         469
  C:2784H         LINE#         471
  C:278EH         LINE#         472
  C:2795H         LINE#         474
  C:279BH         LINE#         475
  C:27A2H         LINE#         477
  C:27A5H         LINE#         478
  C:27ACH         LINE#         480
  C:27B6H         LINE#         481
  C:27BDH         LINE#         483
  C:27C7H         LINE#         484
  C:27D4H         LINE#         486
  C:27D7H         LINE#         487
  C:27DCH         LINE#         491
  C:27E1H         LINE#         492
  C:27E1H         LINE#         493
  C:27E7H         LINE#         494
  C:27E7H         LINE#         495
  C:27F2H         LINE#         497
  C:2801H         LINE#         500
  C:280BH         LINE#         501
  C:281DH         LINE#         502
  C:2830H         LINE#         503
  C:2843H         LINE#         507
  C:2857H         LINE#         508
  C:285CH         LINE#         510
  C:286CH         LINE#         511
  C:286CH         LINE#         512
  C:287EH         LINE#         513
  C:288EH         LINE#         521
  C:2898H         LINE#         522
  C:28A4H         LINE#         523
  C:28ADH         LINE#         524
  C:28ADH         LINE#         533
  C:28B2H         LINE#         534
  C:28B7H         LINE#         538
  C:28BCH         LINE#         539
  C:28BCH         LINE#         541
  C:28C2H         LINE#         542
  -------         ENDPROC       _I2C_RX
  -------         ENDMOD        I2C_H

  -------         MODULE        I2C
  C:0000H         SYMBOL        _ICE_DUMMY_
  D:0090H         PUBLIC        P1
  D:00B0H         PUBLIC        P3
  D:00A8H         PUBLIC        IE
  D:00B8H         PUBLIC        IP
BL51 BANKED LINKER/LOCATER V6.22.2.0                                                  11/30/2021  16:22:28  PAGE 44


  D:0098H         PUBLIC        SCON
  D:0088H         PUBLIC        TCON
  D:00C8H         PUBLIC        T2CON
  D:00D0H         PUBLIC        PSW
  -------         ENDMOD        I2C

  -------         MODULE        TXRXTST
  C:0000H         SYMBOL        _ICE_DUMMY_
  D:0090H         PUBLIC        P1
  D:00B0H         PUBLIC        P3
  D:00A8H         PUBLIC        IE
  D:00B8H         PUBLIC        IP
  D:0098H         PUBLIC        SCON
  D:0088H         PUBLIC        TCON
  D:00C8H         PUBLIC        T2CON
  D:00D0H         PUBLIC        PSW
  -------         ENDMOD        TXRXTST

  -------         MODULE        H2FLOWC
  C:0000H         SYMBOL        _ICE_DUMMY_
  D:0090H         PUBLIC        P1
  D:00B0H         PUBLIC        P3
  B:00A8H.7       PUBLIC        EA
  D:00A8H         PUBLIC        IE
  D:00B8H         PUBLIC        IP
  C:8927H         PUBLIC        _h2_setup_flow_control
  D:0098H         PUBLIC        SCON
  D:0088H         PUBLIC        TCON
  C:324EH         SYMBOL        __ferret_port_fc_setup
  D:00C8H         PUBLIC        T2CON
  D:00D0H         PUBLIC        PSW
  C:9254H         SYMBOL        _wm_enc
  C:8966H         SYMBOL        Com002C
  C:8966H         SYMBOL        L?0045
  C:8967H         SYMBOL        L?0046
  C:8974H         SYMBOL        L?0047
  C:8974H         SYMBOL        L?0048
  C:897EH         SYMBOL        L?0050
  C:898EH         SYMBOL        L?0051
  C:899AH         SYMBOL        L?0052
  -------         PROC          COM002C
  -------         ENDPROC       COM002C
  -------         PROC          _WM_ENC
  D:0006H         SYMBOL        value
  C:9254H         LINE#         76
  C:9254H         LINE#         77
  C:9254H         LINE#         78
  C:925AH         LINE#         79
  C:926FH         LINE#         80
  C:926FH         LINE#         81
  C:926FH         LINE#         82
  -------         ENDPROC       _WM_ENC
  C:357DH         SYMBOL        L?0041
  C:3593H         SYMBOL        L?0042
  C:35A6H         SYMBOL        L?0043
  C:35C3H         SYMBOL        L?0049
  -------         PROC          __FERRET_PORT_FC_SETUP
BL51 BANKED LINKER/LOCATER V6.22.2.0                                                  11/30/2021  16:22:28  PAGE 45


  X:E2EAH         SYMBOL        chip_port
  X:E2EBH         SYMBOL        link_mode
  X:E2ECH         SYMBOL        fc_enabled
  -------         DO            
  X:E2EDH         SYMBOL        pfc
  X:E2EEH         SYMBOL        fc_gen
  X:E2EFH         SYMBOL        fc_obey
  X:E2F0H         SYMBOL        iport_idx
  X:E2F1H         SYMBOL        rsrv_raw
  X:E2F5H         SYMBOL        rsrv_total
  X:E2F9H         SYMBOL        atop_wm
  X:E2FDH         SYMBOL        tgt
  X:E301H         SYMBOL        pause_start
  X:E305H         SYMBOL        pause_stop
  X:E309H         SYMBOL        rsrv_raw_fc_jumbo
  X:E30DH         SYMBOL        rsrv_raw_no_fc_jumbo
  X:E311H         SYMBOL        rsrv_raw_fc_no_jumbo
  X:E315H         SYMBOL        speed
  X:E319H         SYMBOL        spd
  X:E31DH         SYMBOL        mac_addr
  -------         DO            
  X:E323H         SYMBOL        lm
  -------         ENDDO         
  -------         ENDDO         
  C:324EH         LINE#         139
  C:325CH         LINE#         140
  C:325CH         LINE#         141
  C:3265H         LINE#         143
  C:3291H         LINE#         144
  C:329BH         LINE#         145
  C:32A5H         LINE#         146
  C:32AFH         LINE#         147
  C:32B9H         LINE#         148
  C:32C3H         LINE#         149
  C:32D4H         LINE#         150
  C:3304H         LINE#         157
  C:330FH         LINE#         166
  C:3319H         LINE#         167
  C:331CH         LINE#         169
  C:3326H         LINE#         170
  C:3329H         LINE#         171
  C:332BH         LINE#         173
  C:3337H         LINE#         174
  C:3337H         LINE#         186
  C:333DH         LINE#         187
  C:3347H         LINE#         188
  C:3347H         LINE#         194
  C:3389H         LINE#         197
  C:3397H         LINE#         198
  C:33B7H         LINE#         199
  C:33D8H         LINE#         209
  C:345BH         LINE#         214
  C:34AAH         LINE#         218
  C:34BDH         LINE#         219
  C:34CBH         LINE#         220
  C:34D9H         LINE#         223
  C:34DEH         LINE#         224
BL51 BANKED LINKER/LOCATER V6.22.2.0                                                  11/30/2021  16:22:28  PAGE 46


  C:34E4H         LINE#         225
  C:34E6H         LINE#         226
  C:34F8H         LINE#         227
  C:34F8H         LINE#         233
  C:3500H         LINE#         234
  C:3525H         LINE#         247
  C:354BH         LINE#         248
  C:357CH         LINE#         249
  -------         ENDPROC       __FERRET_PORT_FC_SETUP
  -------         PROC          _H2_SETUP_FLOW_CONTROL
  X:E2E7H         SYMBOL        chip_port
  X:E2E8H         SYMBOL        link_mode
  -------         DO            
  X:E2E9H         SYMBOL        mask
  D:0007H         SYMBOL        local
  D:0006H         SYMBOL        remote
  D:0006H         SYMBOL        fc
  -------         ENDDO         
  C:8927H         LINE#         253
  C:8931H         LINE#         262
  C:8931H         LINE#         273
  C:8937H         LINE#         284
  C:893AH         LINE#         285
  C:894EH         LINE#         286
  C:895CH         LINE#         363
  -------         ENDPROC       _H2_SETUP_FLOW_CONTROL
  -------         ENDMOD        H2FLOWC

  -------         MODULE        H2IOUTIL
  C:0000H         SYMBOL        _ICE_DUMMY_
  D:0090H         PUBLIC        P1
  C:889FH         PUBLIC        _h2_write_masked
  D:00B0H         PUBLIC        P3
  D:00A8H         PUBLIC        IE
  D:00B8H         PUBLIC        IP
  D:0098H         PUBLIC        SCON
  D:0088H         PUBLIC        TCON
  D:00C8H         PUBLIC        T2CON
  D:00D0H         PUBLIC        PSW
  C:0006H         SYMBOL        Com0002
  C:0006H         SYMBOL        L?0003
  -------         PROC          COM0002
  -------         ENDPROC       COM0002
  -------         PROC          _H2_WRITE_MASKED
  D:0047H         SYMBOL        addr
  D:004BH         SYMBOL        value
  D:004FH         SYMBOL        mask
  C:889FH         LINE#         68
  C:88A7H         LINE#         79
  -------         ENDPROC       _H2_WRITE_MASKED
  -------         ENDMOD        H2IOUTIL

  -------         MODULE        H2MACTAB
  C:0000H         SYMBOL        _ICE_DUMMY_
  C:9270H         SYMBOL        _is_ipmc_entry
  C:8BBEH         SYMBOL        _write_macdata_reg
  D:0090H         PUBLIC        P1
BL51 BANKED LINKER/LOCATER V6.22.2.0                                                  11/30/2021  16:22:28  PAGE 47


  D:00B0H         PUBLIC        P3
  B:00A8H.7       PUBLIC        EA
  D:00A8H         PUBLIC        IE
  C:93A2H         PUBLIC        _h2_mactab_flush_port
  C:4918H         PUBLIC        _h2_mactab_set
  D:00B8H         PUBLIC        IP
  C:85E6H         PUBLIC        _h2_mactab_get_next
  C:9376H         SYMBOL        _is_ipv6mc_entry
  C:8CC2H         SYMBOL        _build_machdata
  C:8EF6H         SYMBOL        _build_macldata
  D:0098H         PUBLIC        SCON
  D:0088H         PUBLIC        TCON
  C:8C28H         SYMBOL        _do_mactab_cmd
  C:9662H         PUBLIC        h2_mactab_clear
  C:90C0H         SYMBOL        _h2_mac_type
  C:907AH         PUBLIC        h2_mactab_agetime_set
  D:00C8H         PUBLIC        T2CON
  C:42F2H         PUBLIC        _h2_mactab_result
  C:6EB4H         PUBLIC        _h2_mactab_age
  D:00D0H         PUBLIC        PSW
  C:62AEH         SYMBOL        Com0038
  C:62AEH         SYMBOL        L?0057
  C:62BFH         SYMBOL        L?0058
  C:62C8H         SYMBOL        L?0059
  C:62DDH         SYMBOL        L?0060
  C:62E3H         SYMBOL        L?0061
  C:62E3H         SYMBOL        L?0062
  C:62E9H         SYMBOL        L?0063
  C:62EBH         SYMBOL        L?0064
  C:62F1H         SYMBOL        L?0065
  C:62F3H         SYMBOL        L?0066
  C:62F7H         SYMBOL        L?0067
  C:6301H         SYMBOL        L?0068
  C:6303H         SYMBOL        L?0069
  C:6305H         SYMBOL        L?0070
  C:630CH         SYMBOL        L?0071
  C:630FH         SYMBOL        L?0072
  C:631DH         SYMBOL        L?0073
  C:6325H         SYMBOL        L?0074
  C:632BH         SYMBOL        L?0075
  C:632BH         SYMBOL        L?0076
  C:6333H         SYMBOL        L?0077
  C:6336H         SYMBOL        L?0078
  C:633EH         SYMBOL        L?0079
  C:634AH         SYMBOL        L?0080
  C:634AH         SYMBOL        L?0081
  C:6352H         SYMBOL        L?0082
  C:6352H         SYMBOL        L?0083
  C:6359H         SYMBOL        L?0084
  C:6359H         SYMBOL        L?0085
  C:6360H         SYMBOL        L?0086
  C:636CH         SYMBOL        L?0087
  C:6378H         SYMBOL        L?0088
  C:6384H         SYMBOL        L?0089
  C:6386H         SYMBOL        L?0090
  C:638DH         SYMBOL        L?0091
  C:6399H         SYMBOL        L?0092
BL51 BANKED LINKER/LOCATER V6.22.2.0                                                  11/30/2021  16:22:28  PAGE 48


  C:6399H         SYMBOL        L?0093
  -------         PROC          COM0038
  -------         ENDPROC       COM0038
  -------         PROC          _H2_MACTAB_SET
  X:E2E0H         SYMBOL        mac_tab_entry_ptr
  D:0003H         SYMBOL        is_add
  -------         DO            
  X:E2E2H         SYMBOL        pgid
  X:E2E3H         SYMBOL        idx
  X:E2E7H         SYMBOL        mach
  X:E2EBH         SYMBOL        macl
  X:E2EFH         SYMBOL        aged
  X:E2F3H         SYMBOL        mask
  X:E2F7H         SYMBOL        ipv6_mask
  X:E2FBH         SYMBOL        type
  -------         ENDDO         
  C:4918H         LINE#         101
  C:4922H         LINE#         102
  C:4922H         LINE#         103
  C:4925H         LINE#         105
  C:492FH         LINE#         106
  C:4943H         LINE#         109
  C:4946H         LINE#         111
  C:494DH         LINE#         113
  C:495CH         LINE#         114
  C:495FH         LINE#         115
  C:496EH         LINE#         116
  C:497BH         LINE#         117
  C:4988H         LINE#         119
  C:499EH         LINE#         120
  C:49B2H         LINE#         121
  C:49C1H         LINE#         123
  C:49DDH         LINE#         124
  C:49EAH         LINE#         125
  C:49F5H         LINE#         126
  C:49F7H         LINE#         128
  C:4A00H         LINE#         129
  C:4A13H         LINE#         130
  C:4A1EH         LINE#         131
  C:4A34H         LINE#         132
  C:4A34H         LINE#         133
  C:4A36H         LINE#         134
  C:4A3EH         LINE#         135
  C:4A53H         LINE#         136
  C:4A6DH         LINE#         137
  C:4A6DH         LINE#         138
  C:4A6DH         LINE#         139
  C:4A85H         LINE#         140
  C:4A85H         LINE#         143
  C:4A9AH         LINE#         144
  C:4AAFH         LINE#         158
  C:4B0EH         LINE#         160
  C:4B0EH         LINE#         161
  -------         ENDPROC       _H2_MACTAB_SET
  -------         PROC          _H2_MACTAB_RESULT
  X:E2ECH         SYMBOL        mac_tab_entry_ptr
  X:E2EEH         SYMBOL        ipmc_entry
BL51 BANKED LINKER/LOCATER V6.22.2.0                                                  11/30/2021  16:22:28  PAGE 49


  -------         DO            
  X:E2F0H         SYMBOL        value
  X:E2F4H         SYMBOL        type
  X:E2F8H         SYMBOL        idx
  X:E2FCH         SYMBOL        aged
  X:E300H         SYMBOL        mach
  X:E304H         SYMBOL        macl
  -------         ENDDO         
  C:42F2H         LINE#         165
  C:4300H         LINE#         166
  C:4300H         LINE#         167
  C:4300H         LINE#         171
  C:430EH         LINE#         179
  C:431DH         LINE#         180
  C:4324H         LINE#         181
  C:4324H         LINE#         184
  C:4332H         LINE#         185
  C:4340H         LINE#         189
  C:435FH         LINE#         192
  C:4371H         LINE#         193
  C:4383H         LINE#         195
  C:4392H         LINE#         197
  C:4398H         LINE#         200
  C:439DH         LINE#         203
  C:43F4H         LINE#         204
  C:43FFH         LINE#         205
  C:4402H         LINE#         208
  C:4448H         LINE#         209
  C:4457H         LINE#         210
  C:4463H         LINE#         211
  C:4463H         LINE#         212
  C:4465H         LINE#         213
  C:446AH         LINE#         217
  C:449CH         LINE#         219
  C:449CH         LINE#         221
  C:44B5H         LINE#         222
  C:44C5H         LINE#         223
  C:44D3H         LINE#         224
  C:44DEH         LINE#         225
  C:44ECH         LINE#         226
  C:44F7H         LINE#         227
  C:450BH         LINE#         237
  C:450EH         LINE#         238
  -------         ENDPROC       _H2_MACTAB_RESULT
  -------         PROC          _H2_MACTAB_GET_NEXT
  X:E2E5H         SYMBOL        mac_tab_entry_ptr
  X:E2E7H         SYMBOL        ipmc_entry
  X:E2E9H         SYMBOL        is_getnext
  -------         DO            
  X:E2EAH         SYMBOL        entry_type
  D:0004H         SYMBOL        rc
  -------         ENDDO         
  C:85E6H         LINE#         243
  C:85F9H         LINE#         244
  C:85F9H         LINE#         249
  C:85FCH         LINE#         251
  C:8602H         LINE#         252
BL51 BANKED LINKER/LOCATER V6.22.2.0                                                  11/30/2021  16:22:28  PAGE 50


  C:8615H         LINE#         255
  C:861AH         LINE#         256
  C:861CH         LINE#         264
  C:862EH         LINE#         266
  C:862EH         LINE#         268
  -------         ENDPROC       _H2_MACTAB_GET_NEXT
  -------         PROC          H2_MACTAB_AGETIME_SET
  C:907AH         LINE#         276
  C:907AH         LINE#         284
  C:907AH         LINE#         291
  C:909CH         LINE#         296
  -------         ENDPROC       H2_MACTAB_AGETIME_SET
  -------         PROC          _H2_MACTAB_AGE
  X:E2E0H         SYMBOL        pgid_age
  X:E2E1H         SYMBOL        pgid
  D:0003H         SYMBOL        vid_age
  X:E2E3H         SYMBOL        vid
  C:6EB4H         LINE#         299
  C:6EBCH         LINE#         307
  C:6EBCH         LINE#         324
  C:6F4BH         LINE#         328
  C:6F53H         LINE#         331
  C:6F65H         LINE#         332
  -------         ENDPROC       _H2_MACTAB_AGE
  -------         PROC          H2_MACTAB_CLEAR
  C:9662H         LINE#         335
  C:9662H         LINE#         343
  C:9662H         LINE#         344
  -------         ENDPROC       H2_MACTAB_CLEAR
  -------         PROC          _H2_MACTAB_FLUSH_PORT
  X:E2DFH         SYMBOL        chip_port
  C:93A2H         LINE#         348
  C:93A7H         LINE#         349
  C:93A7H         LINE#         351
  C:93ADH         LINE#         352
  -------         ENDPROC       _H2_MACTAB_FLUSH_PORT
  -------         PROC          _DO_MACTAB_CMD
  D:0004H         SYMBOL        mac_access_reg_val
  -------         DO            
  X:E2FDH         SYMBOL        cmd
  -------         ENDDO         
  C:8C28H         LINE#         363
  C:8C28H         LINE#         364
  C:8C28H         LINE#         365
  C:8C28H         LINE#         367
  C:8C35H         LINE#         368
  C:8C35H         LINE#         369
  C:8C43H         LINE#         370
  C:8C5BH         LINE#         371
  -------         ENDPROC       _DO_MACTAB_CMD
  -------         PROC          _WRITE_MACDATA_REG
  X:E2FDH         SYMBOL        mac_entry_ptr
  C:8BBEH         LINE#         374
  C:8BC6H         LINE#         375
  C:8BC6H         LINE#         376
  C:8BD8H         LINE#         377
  C:8BF2H         LINE#         378
BL51 BANKED LINKER/LOCATER V6.22.2.0                                                  11/30/2021  16:22:28  PAGE 51


  -------         ENDPROC       _WRITE_MACDATA_REG
  -------         PROC          _BUILD_MACHDATA
  D:0004H         SYMBOL        mac_entry_ptr
  -------         DO            
  X:E2FFH         SYMBOL        tmp
  -------         ENDDO         
  C:8CC2H         LINE#         380
  C:8CC6H         LINE#         381
  C:8CC6H         LINE#         384
  C:8CD4H         LINE#         385
  C:8CD7H         LINE#         386
  C:8CE2H         LINE#         387
  C:8CEEH         LINE#         389
  -------         ENDPROC       _BUILD_MACHDATA
  -------         PROC          _BUILD_MACLDATA
  D:0006H         SYMBOL        mac_entry_ptr
  -------         DO            
  X:E2FFH         SYMBOL        tmp
  -------         ENDDO         
  C:8EF6H         LINE#         392
  C:8EF6H         LINE#         393
  C:8EF6H         LINE#         396
  C:8EFDH         LINE#         397
  C:8F07H         LINE#         398
  C:8F11H         LINE#         399
  C:8F1BH         LINE#         401
  -------         ENDPROC       _BUILD_MACLDATA
  -------         PROC          _IS_IPMC_ENTRY
  D:0006H         SYMBOL        mac_entry_ptr
  C:9270H         LINE#         405
  C:9270H         LINE#         406
  C:9270H         LINE#         407
  C:928BH         LINE#         410
  -------         ENDPROC       _IS_IPMC_ENTRY
  -------         PROC          _IS_IPV6MC_ENTRY
  D:0006H         SYMBOL        mac_entry_ptr
  C:9376H         LINE#         412
  C:9376H         LINE#         413
  C:9376H         LINE#         414
  C:938CH         LINE#         416
  -------         ENDPROC       _IS_IPV6MC_ENTRY
  -------         PROC          _H2_MAC_TYPE
  D:0004H         SYMBOL        mac_entry_ptr
  C:90C0H         LINE#         419
  C:90C4H         LINE#         420
  C:90C4H         LINE#         421
  C:90CAH         LINE#         422
  C:90CFH         LINE#         423
  C:90D9H         LINE#         424
  C:90DEH         LINE#         425
  C:90E1H         LINE#         426
  -------         ENDPROC       _H2_MAC_TYPE
  -------         ENDMOD        H2MACTAB

  -------         MODULE        H2TXRX
  C:0000H         SYMBOL        _ICE_DUMMY_
  D:0090H         PUBLIC        P1
BL51 BANKED LINKER/LOCATER V6.22.2.0                                                  11/30/2021  16:22:28  PAGE 52


  D:00B0H         PUBLIC        P3
  D:00A8H         PUBLIC        IE
  D:00B8H         PUBLIC        IP
  D:0098H         PUBLIC        SCON
  D:0088H         PUBLIC        TCON
  D:00C8H         PUBLIC        T2CON
  D:00D0H         PUBLIC        PSW
  -------         ENDMOD        H2TXRX

  -------         MODULE        H2VLAN
  C:0000H         SYMBOL        _ICE_DUMMY_
  D:0090H         PUBLIC        P1
  D:00B0H         PUBLIC        P3
  B:00A8H.7       PUBLIC        EA
  C:89A5H         SYMBOL        __h2_vlan_do_command
  D:00A8H         PUBLIC        IE
  D:00B8H         PUBLIC        IP
  C:959FH         PUBLIC        h2_vlan_clear_tab
  D:0098H         PUBLIC        SCON
  D:0088H         PUBLIC        TCON
  D:00C8H         PUBLIC        T2CON
  D:00D0H         PUBLIC        PSW
  -------         PROC          H2_VLAN_CLEAR_TAB
  C:959FH         LINE#         80
  C:959FH         LINE#         88
  C:959FH         LINE#         89
  -------         ENDPROC       H2_VLAN_CLEAR_TAB
  -------         PROC          __H2_VLAN_DO_COMMAND
  D:0004H         SYMBOL        aces_value
  -------         DO            
  D:0004H         SYMBOL        cmd
  -------         ENDDO         
  C:89A5H         LINE#         92
  C:89A5H         LINE#         93
  C:89A5H         LINE#         94
  C:89A5H         LINE#         96
  C:89B7H         LINE#         98
  C:89BCH         LINE#         99
  C:89BCH         LINE#         100
  C:89CBH         LINE#         101
  C:89E2H         LINE#         108
  -------         ENDPROC       __H2_VLAN_DO_COMMAND
  -------         ENDMOD        H2VLAN

  -------         MODULE        H2
  C:0000H         SYMBOL        _ICE_DUMMY_
  D:0090H         PUBLIC        P1
  D:00B0H         PUBLIC        P3
  B:00A8H.7       PUBLIC        EA
  D:00A8H         PUBLIC        IE
  D:00B8H         PUBLIC        IP
  C:4EA6H         SYMBOL        __ferret_port_reset
  C:9485H         PUBLIC        h2_reset
  C:3E47H         SYMBOL        __setup_mac
  C:935EH         PUBLIC        h2_chip_reset
  C:92C4H         SYMBOL        __port_reset
  D:0098H         PUBLIC        SCON
BL51 BANKED LINKER/LOCATER V6.22.2.0                                                  11/30/2021  16:22:28  PAGE 53


  D:0088H         PUBLIC        TCON
  C:471CH         SYMBOL        __setup_pcs
  C:61B6H         SYMBOL        __setup_port
  C:96DDH         PUBLIC        vtss_update_masks
  C:8B13H         PUBLIC        _h2_enable_exc_col_drop
  C:0E25H         SYMBOL        _ferret_buf_conf_set
  C:760DH         PUBLIC        h2_post_reset
  C:639FH         PUBLIC        h2_init_ports
  C:9104H         PUBLIC        _h2_setup_port
  D:00C8H         PUBLIC        T2CON
  C:96DCH         SYMBOL        _h2_setup_cpu_if
  D:00D0H         PUBLIC        PSW
  C:928CH         SYMBOL        _wm_enc
  C:40A4H         SYMBOL        Com00B7
  C:40A4H         SYMBOL        L?0184
  C:40A6H         SYMBOL        L?0185
  C:40ABH         SYMBOL        L?0186
  C:40ADH         SYMBOL        L?0187
  C:40C8H         SYMBOL        L?0193
  C:40D2H         SYMBOL        L?0194
  C:40D6H         SYMBOL        L?0195
  C:40DCH         SYMBOL        L?0196
  C:40DFH         SYMBOL        L?0197
  C:40E6H         SYMBOL        L?0200
  C:40E6H         SYMBOL        L?0201
  C:40EBH         SYMBOL        L?0202
  C:410AH         SYMBOL        L?0203
  C:411EH         SYMBOL        L?0204
  C:4122H         SYMBOL        L?0205
  C:412CH         SYMBOL        L?0206
  C:412FH         SYMBOL        L?0207
  C:4135H         SYMBOL        L?0208
  C:4140H         SYMBOL        L?0210
  C:4140H         SYMBOL        L?0211
  C:4142H         SYMBOL        L?0212
  C:414AH         SYMBOL        L?0215
  C:414FH         SYMBOL        L?0216
  C:415DH         SYMBOL        L?0217
  C:416BH         SYMBOL        L?0218
  C:416BH         SYMBOL        L?0219
  C:416DH         SYMBOL        L?0220
  C:4179H         SYMBOL        L?0221
  C:418EH         SYMBOL        L?0222
  C:4191H         SYMBOL        L?0223
  C:4197H         SYMBOL        L?0224
  C:4197H         SYMBOL        L?0225
  C:419AH         SYMBOL        L?0226
  C:41A1H         SYMBOL        L?0228
  C:41A1H         SYMBOL        L?0229
  C:41B6H         SYMBOL        L?0230
  C:41B6H         SYMBOL        L?0231
  C:41C6H         SYMBOL        L?0232
  C:41CEH         SYMBOL        L?0233
  C:41CEH         SYMBOL        L?0234
  C:41D3H         SYMBOL        L?0235
  C:41DAH         SYMBOL        L?0236
  C:41DDH         SYMBOL        L?0237
BL51 BANKED LINKER/LOCATER V6.22.2.0                                                  11/30/2021  16:22:28  PAGE 54


  C:41E7H         SYMBOL        L?0238
  C:41E7H         SYMBOL        L?0239
  C:41EBH         SYMBOL        L?0240
  C:41F1H         SYMBOL        L?0241
  C:41FDH         SYMBOL        L?0242
  C:4205H         SYMBOL        L?0245
  C:4207H         SYMBOL        L?0246
  C:420BH         SYMBOL        L?0247
  C:4212H         SYMBOL        L?0248
  C:422DH         SYMBOL        L?0250
  C:4233H         SYMBOL        L?0251
  C:4239H         SYMBOL        L?0253
  C:4239H         SYMBOL        L?0254
  C:4243H         SYMBOL        L?0255
  C:4243H         SYMBOL        L?0256
  C:4250H         SYMBOL        L?0257
  C:425CH         SYMBOL        L?0258
  C:425CH         SYMBOL        L?0259
  C:4264H         SYMBOL        L?0261
  C:426DH         SYMBOL        L?0262
  C:4273H         SYMBOL        L?0265
  C:4273H         SYMBOL        L?0266
  C:4275H         SYMBOL        L?0267
  C:427CH         SYMBOL        L?0268
  C:427EH         SYMBOL        L?0269
  C:4286H         SYMBOL        L?0270
  C:4286H         SYMBOL        L?0271
  C:428DH         SYMBOL        L?0272
  C:428DH         SYMBOL        L?0273
  C:4294H         SYMBOL        L?0274
  C:4294H         SYMBOL        L?0275
  C:429BH         SYMBOL        L?0277
  C:429BH         SYMBOL        L?0278
  C:42A3H         SYMBOL        L?0279
  C:42AFH         SYMBOL        L?0280
  C:42BBH         SYMBOL        L?0283
  C:42C4H         SYMBOL        L?0284
  C:42C4H         SYMBOL        L?0285
  C:42CBH         SYMBOL        L?0286
  C:42CBH         SYMBOL        L?0287
  C:42D2H         SYMBOL        L?0288
  C:42D2H         SYMBOL        L?0289
  C:42D8H         SYMBOL        L?0290
  C:42D8H         SYMBOL        L?0291
  C:42DEH         SYMBOL        L?0292
  C:42E8H         SYMBOL        L?0293
  -------         PROC          COM00B7
  -------         ENDPROC       COM00B7
  -------         PROC          _H2_SETUP_CPU_IF
  C:96DCH         LINE#         148
  C:96DCH         LINE#         150
  -------         ENDPROC       _H2_SETUP_CPU_IF
  -------         PROC          _WM_ENC
  D:0006H         SYMBOL        value
  C:928CH         LINE#         260
  C:928CH         LINE#         261
  C:928CH         LINE#         262
BL51 BANKED LINKER/LOCATER V6.22.2.0                                                  11/30/2021  16:22:28  PAGE 55


  C:9292H         LINE#         263
  C:92A7H         LINE#         264
  C:92A7H         LINE#         265
  C:92A7H         LINE#         266
  -------         ENDPROC       _WM_ENC
  C:1510H         SYMBOL        L?0188
  C:1561H         SYMBOL        L?0189
  C:15ACH         SYMBOL        L?0190
  C:15D7H         SYMBOL        L?0191
  C:1602H         SYMBOL        L?0192
  C:1627H         SYMBOL        L?0198
  C:163AH         SYMBOL        L?0199
  C:165CH         SYMBOL        L?0209
  C:1681H         SYMBOL        L?0213
  C:169AH         SYMBOL        L?0214
  C:16BEH         SYMBOL        L?0227
  C:16D7H         SYMBOL        L?0243
  C:16DFH         SYMBOL        L?0249
  C:16FAH         SYMBOL        L?0252
  C:1711H         SYMBOL        L?0260
  C:1719H         SYMBOL        L?0281
  -------         PROC          _FERRET_BUF_CONF_SET
  -------         DO            
  X:E2CAH         SYMBOL        q
  X:E2CCH         SYMBOL        port_no
  X:E2D0H         SYMBOL        port
  X:E2D4H         SYMBOL        dp
  X:E2D8H         SYMBOL        buf_q_rsrv_i
  X:E2DCH         SYMBOL        buf_q_rsrv_e
  X:E2E0H         SYMBOL        ref_q_rsrv_i
  X:E2E4H         SYMBOL        ref_q_rsrv_e
  X:E2E8H         SYMBOL        buf_prio_shr_i
  X:E308H         SYMBOL        buf_prio_shr_e
  X:E328H         SYMBOL        ref_prio_shr_i
  X:E348H         SYMBOL        ref_prio_shr_e
  X:E368H         SYMBOL        buf_p_rsrv_i
  X:E36CH         SYMBOL        buf_p_rsrv_e
  X:E370H         SYMBOL        ref_p_rsrv_i
  X:E374H         SYMBOL        ref_p_rsrv_e
  X:E378H         SYMBOL        buf_col_shr_i
  X:E37CH         SYMBOL        buf_col_shr_e
  X:E380H         SYMBOL        ref_col_shr_i
  X:E384H         SYMBOL        ref_col_shr_e
  X:E388H         SYMBOL        buf_prio_rsrv
  X:E38CH         SYMBOL        ref_prio_rsrv
  X:E390H         SYMBOL        guaranteed
  X:E394H         SYMBOL        q_rsrv_mask
  X:E398H         SYMBOL        prio_mem
  X:E39CH         SYMBOL        prio_ref
  X:E3A0H         SYMBOL        oversubscription_factor
  X:E3A4H         SYMBOL        prio_strict
  X:E3A5H         SYMBOL        prios
  X:E3A6H         SYMBOL        shr_mode
  X:E3AAH         SYMBOL        is_squeeze_buffer_resource
  -------         ENDDO         
  C:0E25H         LINE#         275
  C:0E25H         LINE#         276
BL51 BANKED LINKER/LOCATER V6.22.2.0                                                  11/30/2021  16:22:28  PAGE 56


  C:0E25H         LINE#         282
  C:0E2BH         LINE#         287
  C:0E33H         LINE#         296
  C:0E39H         LINE#         309
  C:0E43H         LINE#         310
  C:0E4DH         LINE#         311
  C:0E57H         LINE#         312
  C:0E61H         LINE#         313
  C:0E6BH         LINE#         314
  C:0E75H         LINE#         315
  C:0E7FH         LINE#         316
  C:0E85H         LINE#         319
  C:0E8FH         LINE#         320
  C:0E99H         LINE#         321
  C:0EA3H         LINE#         322
  C:0EADH         LINE#         323
  C:0EB7H         LINE#         324
  C:0EC1H         LINE#         325
  C:0ECBH         LINE#         329
  C:0ED5H         LINE#         337
  C:0EE3H         LINE#         338
  C:0EE7H         LINE#         339
  C:0EF1H         LINE#         340
  C:0EFBH         LINE#         341
  C:0F05H         LINE#         342
  C:0F0FH         LINE#         343
  C:0F19H         LINE#         344
  C:0F23H         LINE#         345
  C:0F2DH         LINE#         346
  C:0F2DH         LINE#         355
  C:0F33H         LINE#         356
  C:0F3DH         LINE#         357
  C:0F3FH         LINE#         358
  C:0F67H         LINE#         359
  C:0F67H         LINE#         367
  C:0F70H         LINE#         368
  C:0F7BH         LINE#         369
  C:0F8CH         LINE#         370
  C:0FB4H         LINE#         371
  C:0FB9H         LINE#         373
  C:0FD1H         LINE#         376
  C:0FDAH         LINE#         377
  C:0FE5H         LINE#         378
  C:0FF6H         LINE#         379
  C:101EH         LINE#         380
  C:101EH         LINE#         381
  C:1023H         LINE#         382
  C:1037H         LINE#         385
  C:1040H         LINE#         386
  C:105EH         LINE#         387
  C:1072H         LINE#         388
  C:1097H         LINE#         389
  C:10BFH         LINE#         390
  C:10E4H         LINE#         391
  C:1109H         LINE#         393
  C:1109H         LINE#         394
  C:110FH         LINE#         395
BL51 BANKED LINKER/LOCATER V6.22.2.0                                                  11/30/2021  16:22:28  PAGE 57


  C:1111H         LINE#         396
  C:112DH         LINE#         397
  C:113EH         LINE#         398
  C:115AH         LINE#         399
  C:116BH         LINE#         400
  C:116BH         LINE#         401
  C:1175H         LINE#         402
  C:117EH         LINE#         403
  C:1187H         LINE#         404
  C:1196H         LINE#         405
  C:11A5H         LINE#         406
  C:11A8H         LINE#         408
  C:11C5H         LINE#         409
  C:11EDH         LINE#         410
  C:1218H         LINE#         411
  C:1240H         LINE#         412
  C:1268H         LINE#         413
  C:1268H         LINE#         414
  C:126EH         LINE#         415
  C:1274H         LINE#         416
  C:127AH         LINE#         417
  C:1280H         LINE#         418
  C:1286H         LINE#         419
  C:128CH         LINE#         421
  C:12A3H         LINE#         422
  C:12A3H         LINE#         427
  C:12B9H         LINE#         428
  C:12C2H         LINE#         429
  C:12CCH         LINE#         430
  C:12CEH         LINE#         431
  C:12D1H         LINE#         432
  C:12D1H         LINE#         433
  C:12DFH         LINE#         434
  C:12F0H         LINE#         435
  C:12F0H         LINE#         436
  C:12FDH         LINE#         437
  C:1311H         LINE#         438
  C:131FH         LINE#         439
  C:1328H         LINE#         440
  C:132BH         LINE#         441
  C:1336H         LINE#         442
  C:133BH         LINE#         443
  C:1346H         LINE#         444
  C:1373H         LINE#         445
  C:1373H         LINE#         446
  C:1379H         LINE#         447
  C:1385H         LINE#         451
  C:1390H         LINE#         455
  C:13A7H         LINE#         456
  C:13BEH         LINE#         457
  C:13D5H         LINE#         458
  C:13ECH         LINE#         459
  C:13F2H         LINE#         463
  C:1405H         LINE#         464
  C:140EH         LINE#         465
  C:1418H         LINE#         466
  C:141AH         LINE#         467
BL51 BANKED LINKER/LOCATER V6.22.2.0                                                  11/30/2021  16:22:28  PAGE 58


  C:141DH         LINE#         468
  C:141DH         LINE#         469
  C:142AH         LINE#         470
  C:143AH         LINE#         471
  C:144CH         LINE#         472
  C:1462H         LINE#         473
  C:146EH         LINE#         478
  C:148DH         LINE#         479
  C:149BH         LINE#         480
  C:14B0H         LINE#         481
  C:14C8H         LINE#         482
  C:14E2H         LINE#         485
  C:14F1H         LINE#         486
  C:1500H         LINE#         487
  C:150FH         LINE#         488
  -------         ENDPROC       _FERRET_BUF_CONF_SET
  C:502EH         SYMBOL        L?0244
  C:5039H         SYMBOL        L?0263
  -------         PROC          __FERRET_PORT_RESET
  X:E2E0H         SYMBOL        chip_port
  X:E2E1H         SYMBOL        link_mode
  -------         DO            
  D:0004H         SYMBOL        reg_val
  X:E2E2H         SYMBOL        retry_cnt
  D:0007H         SYMBOL        speed
  X:E2E6H         SYMBOL        reg_speed_val
  -------         ENDDO         
  C:4EA6H         LINE#         492
  C:4EAFH         LINE#         493
  C:4EAFH         LINE#         528
  C:4EB7H         LINE#         536
  C:4EBBH         LINE#         537
  C:4EE4H         LINE#         546
  C:4EFBH         LINE#         553
  C:4F0FH         LINE#         560
  C:4F24H         LINE#         569
  C:4F29H         LINE#         576
  C:4F32H         LINE#         583
  C:4F48H         LINE#         590
  C:4F59H         LINE#         595
  C:4F59H         LINE#         596
  C:4F5EH         LINE#         597
  C:4F70H         LINE#         598
  C:4F85H         LINE#         620
  C:4F9AH         LINE#         627
  C:4FAEH         LINE#         631
  C:4FB9H         LINE#         634
  C:4FC4H         LINE#         638
  C:4FF1H         LINE#         642
  C:5013H         LINE#         652
  C:5029H         LINE#         654
  C:502EH         LINE#         655
  -------         ENDPROC       __FERRET_PORT_RESET
  C:62A3H         SYMBOL        L?0264
  -------         PROC          __SETUP_PORT
  X:E2DDH         SYMBOL        chip_port
  X:E2DEH         SYMBOL        link_mode
BL51 BANKED LINKER/LOCATER V6.22.2.0                                                  11/30/2021  16:22:28  PAGE 59


  -------         DO            
  D:0007H         SYMBOL        speed
  X:E2DFH         SYMBOL        reg_speed_val
  -------         ENDDO         
  C:61B6H         LINE#         658
  C:61BEH         LINE#         659
  C:61BEH         LINE#         666
  C:61C1H         LINE#         667
  C:61EAH         LINE#         671
  C:61F5H         LINE#         673
  C:61FDH         LINE#         675
  C:6207H         LINE#         685
  C:6221H         LINE#         696
  C:6251H         LINE#         711
  C:6273H         LINE#         724
  C:6293H         LINE#         727
  C:6295H         LINE#         730
  C:62A0H         LINE#         748
  C:62A0H         LINE#         752
  C:62A3H         LINE#         753
  -------         ENDPROC       __SETUP_PORT
  -------         PROC          __SETUP_PCS
  X:E2DDH         SYMBOL        chip_port
  X:E2DEH         SYMBOL        link_mode
  -------         DO            
  X:E2DEH         SYMBOL        sd_internal
  X:E2DFH         SYMBOL        sd_active_high
  X:E2E0H         SYMBOL        sd_enable
  X:E2E1H         SYMBOL        if_100fx
  X:E2E2H         SYMBOL        if_sgmii
  X:E2E3H         SYMBOL        if_type
  X:E2E4H         SYMBOL        value
  -------         ENDDO         
  C:471CH         LINE#         756
  C:4721H         LINE#         757
  C:4721H         LINE#         761
  C:4721H         LINE#         762
  C:4729H         LINE#         771
  C:4734H         LINE#         772
  C:473AH         LINE#         773
  C:473AH         LINE#         774
  C:473AH         LINE#         775
  C:4744H         LINE#         776
  C:4749H         LINE#         777
  C:474CH         LINE#         778
  C:474EH         LINE#         779
  C:474EH         LINE#         783
  C:4759H         LINE#         784
  C:475EH         LINE#         785
  C:4761H         LINE#         786
  C:476DH         LINE#         792
  C:476DH         LINE#         793
  C:4772H         LINE#         794
  C:4775H         LINE#         795
  C:4777H         LINE#         796
  C:477CH         LINE#         797
  C:477EH         LINE#         798
BL51 BANKED LINKER/LOCATER V6.22.2.0                                                  11/30/2021  16:22:28  PAGE 60


  C:477EH         LINE#         801
  C:4787H         LINE#         818
  C:47EAH         LINE#         824
  C:4813H         LINE#         827
  C:4816H         LINE#         844
  C:4844H         LINE#         850
  C:4875H         LINE#         860
  C:48FFH         LINE#         869
  C:4909H         LINE#         872
  C:4917H         LINE#         874
  C:4917H         LINE#         875
  -------         ENDPROC       __SETUP_PCS
  C:4082H         SYMBOL        L?0276
  C:408FH         SYMBOL        L?0282
  C:409AH         SYMBOL        L?0294
  -------         PROC          __SETUP_MAC
  X:E2E7H         SYMBOL        chip_port
  X:E2E8H         SYMBOL        link_mode
  -------         DO            
  X:E2E9H         SYMBOL        fdx_gap
  X:E2EDH         SYMBOL        hdx_gap_1
  X:E2F1H         SYMBOL        hdx_gap_2
  X:E2F5H         SYMBOL        value
  X:E2F9H         SYMBOL        link_spd_dpx
  -------         ENDDO         
  C:3E47H         LINE#         877
  C:3E50H         LINE#         878
  C:3E50H         LINE#         879
  C:3E5AH         LINE#         882
  C:3E61H         LINE#         883
  C:3E6BH         LINE#         893
  C:3E98H         LINE#         897
  C:3EA4H         LINE#         903
  C:3EB5H         LINE#         905
  C:3EB5H         LINE#         908
  C:3EBCH         LINE#         912
  C:3ECDH         LINE#         914
  C:3ECDH         LINE#         922
  C:3EF7H         LINE#         941
  C:3F04H         LINE#         942
  C:3F09H         LINE#         944
  C:3F10H         LINE#         945
  C:3F12H         LINE#         946
  C:3F19H         LINE#         947
  C:3F19H         LINE#         948
  C:3F25H         LINE#         950
  C:3F2AH         LINE#         952
  C:3F31H         LINE#         953
  C:3F33H         LINE#         954
  C:3F3AH         LINE#         955
  C:3F3AH         LINE#         956
  C:3F3CH         LINE#         957
  C:3F46H         LINE#         958
  C:3F46H         LINE#         959
  C:3F50H         LINE#         960
  C:3F5AH         LINE#         977
  C:3F61H         LINE#         978
BL51 BANKED LINKER/LOCATER V6.22.2.0                                                  11/30/2021  16:22:28  PAGE 61


  C:3F6BH         LINE#         979
  C:3F75H         LINE#         980
  C:3F75H         LINE#         1004
  C:3FEAH         LINE#         1023
  C:4036H         LINE#         1027
  C:403BH         LINE#         1035
  C:4055H         LINE#         1039
  C:4061H         LINE#         1056
  C:406AH         LINE#         1058
  C:406AH         LINE#         1066
  C:4071H         LINE#         1068
  C:4073H         LINE#         1076
  C:4081H         LINE#         1078
  C:4081H         LINE#         1079
  C:4081H         LINE#         1080
  -------         ENDPROC       __SETUP_MAC
  -------         PROC          H2_RESET
  C:9485H         LINE#         1094
  C:9485H         LINE#         1100
  C:9496H         LINE#         1106
  C:9496H         LINE#         1107
  -------         ENDPROC       H2_RESET
  -------         PROC          H2_POST_RESET
  -------         DO            
  D:0004H         SYMBOL        cmd
  D:0007H         SYMBOL        locked
  -------         ENDDO         
  C:760DH         LINE#         1113
  C:760DH         LINE#         1114
  C:760DH         LINE#         1118
  C:7610H         LINE#         1123
  C:7613H         LINE#         1124
  C:7616H         LINE#         1125
  C:761FH         LINE#         1126
  C:7623H         LINE#         1128
  C:7623H         LINE#         1132
  C:7626H         LINE#         1138
  C:7638H         LINE#         1146
  C:763DH         LINE#         1153
  C:763DH         LINE#         1154
  C:7645H         LINE#         1155
  C:764FH         LINE#         1158
  C:7654H         LINE#         1162
  C:7659H         LINE#         1164
  C:7659H         LINE#         1170
  C:7670H         LINE#         1191
  C:7673H         LINE#         1192
  C:7676H         LINE#         1193
  C:767BH         LINE#         1195
  C:767EH         LINE#         1206
  C:7681H         LINE#         1217
  C:7696H         LINE#         1220
  C:76A9H         LINE#         1221
  -------         ENDPROC       H2_POST_RESET
  -------         PROC          H2_INIT_PORTS
  -------         DO            
  X:E2CAH         SYMBOL        iport_idx
BL51 BANKED LINKER/LOCATER V6.22.2.0                                                  11/30/2021  16:22:28  PAGE 62


  X:E2CBH         SYMBOL        chip_port
  D:0004H         SYMBOL        reg_val
  X:E2CCH         SYMBOL        chip_port_map
  -------         ENDDO         
  C:639FH         LINE#         1227
  C:639FH         LINE#         1228
  C:639FH         LINE#         1233
  C:63A9H         LINE#         1242
  C:63BCH         LINE#         1243
  C:63C7H         LINE#         1245
  C:63FCH         LINE#         1246
  C:641AH         LINE#         1250
  C:6424H         LINE#         1251
  C:642DH         LINE#         1254
  C:643AH         LINE#         1255
  C:643FH         LINE#         1256
  C:6453H         LINE#         1257
  C:645EH         LINE#         1262
  C:6468H         LINE#         1269
  C:647EH         LINE#         1270
  C:647EH         LINE#         1271
  C:6486H         LINE#         1272
  C:6486H         LINE#         1278
  -------         ENDPROC       H2_INIT_PORTS
  -------         PROC          _H2_SETUP_PORT
  X:E2DBH         SYMBOL        chip_port
  X:E2DCH         SYMBOL        link_mode
  C:9104H         LINE#         1286
  C:910CH         LINE#         1287
  C:910CH         LINE#         1288
  C:910FH         LINE#         1289
  C:911AH         LINE#         1292
  -------         ENDPROC       _H2_SETUP_PORT
  -------         PROC          __PORT_RESET
  X:E2DDH         SYMBOL        chip_port
  X:E2DEH         SYMBOL        link_mode
  C:92C4H         LINE#         1314
  C:92CCH         LINE#         1315
  C:92CCH         LINE#         1318
  C:92CFH         LINE#         1405
  C:92D6H         LINE#         1406
  C:92DEH         LINE#         1407
  C:92DEH         LINE#         1408
  -------         ENDPROC       __PORT_RESET
  -------         PROC          _H2_ENABLE_EXC_COL_DROP
  D:0007H         SYMBOL        chip_port
  X:E2E0H         SYMBOL        drop_enable
  C:8B13H         LINE#         1457
  C:8B18H         LINE#         1458
  C:8B18H         LINE#         1462
  C:8B4DH         LINE#         1468
  -------         ENDPROC       _H2_ENABLE_EXC_COL_DROP
  -------         PROC          VTSS_UPDATE_MASKS
  C:96DDH         LINE#         1662
  C:96DDH         LINE#         1663
  C:96DDH         LINE#         1689
  -------         ENDPROC       VTSS_UPDATE_MASKS
BL51 BANKED LINKER/LOCATER V6.22.2.0                                                  11/30/2021  16:22:28  PAGE 63


  -------         PROC          H2_CHIP_RESET
  C:935EH         LINE#         1722
  C:935EH         LINE#         1723
  C:935EH         LINE#         1726
  C:9375H         LINE#         1732
  -------         ENDPROC       H2_CHIP_RESET
  -------         ENDMOD        H2

  -------         MODULE        H2IO
  C:536BH         SEGMENT       PROG
  C:536BH         PUBLIC        _H2_READ
  C:537CH         PUBLIC        _H2_WRITE_ADDR
  C:5385H         PUBLIC        _H2_WRITE_VAL
  B:00D0H.6       SYMBOL        AC
  D:00E0H         SYMBOL        ACC
  D:00F0H         SYMBOL        B
  B:00C8H.0       SYMBOL        CP_RL2
  B:00D0H.7       SYMBOL        CY
  B:00C8H.1       SYMBOL        C_T2
  D:0083H         SYMBOL        DPH
  D:0082H         SYMBOL        DPL
  B:00A8H.7       SYMBOL        EA
  D:00C0H         SYMBOL        EPAGE_SEL
  B:00A8H.4       SYMBOL        ES
  B:00A8H.1       SYMBOL        ET0
  B:00A8H.3       SYMBOL        ET1
  B:00A8H.5       SYMBOL        ET2
  B:00A8H.0       SYMBOL        EX0
  B:00A8H.2       SYMBOL        EX1
  B:00C8H.3       SYMBOL        EXEN2
  B:00C8H.6       SYMBOL        EXF2
  B:00D0H.5       SYMBOL        F0
  D:0080H         SYMBOL        GPR
  B:0080H.0       SYMBOL        GPR_0
  B:0080H.1       SYMBOL        GPR_1
  B:0080H.2       SYMBOL        GPR_2
  B:0080H.3       SYMBOL        GPR_3
  B:0080H.4       SYMBOL        GPR_4
  B:0080H.5       SYMBOL        GPR_5
  B:0080H.6       SYMBOL        GPR_6
  B:0080H.7       SYMBOL        GPR_7
  N:0000H         SYMBOL        H2IO
  D:00A8H         SYMBOL        IE
  B:0088H.1       SYMBOL        IE0
  B:0088H.3       SYMBOL        IE1
  B:00B0H.2       SYMBOL        INT0
  B:00B0H.3       SYMBOL        INT1
  D:00B8H         SYMBOL        IP
  B:0088H.0       SYMBOL        IT0
  B:0088H.2       SYMBOL        IT1
  B:0090H.6       SYMBOL        MISO
  D:00F2H         SYMBOL        MMAP
  B:0090H.5       SYMBOL        MOSI
  B:00D0H.2       SYMBOL        OV
  B:00D0H.0       SYMBOL        P
  D:0080H         SYMBOL        P0
  D:0090H         SYMBOL        P1
BL51 BANKED LINKER/LOCATER V6.22.2.0                                                  11/30/2021  16:22:28  PAGE 64


  D:00A0H         SYMBOL        P2
  D:00B0H         SYMBOL        P3
  D:00B0H         SYMBOL        PAGE_SEL
  D:0087H         SYMBOL        PCON
  B:00B0H.4       SYMBOL        PG_IFP_0
  B:00B0H.5       SYMBOL        PG_IFP_1
  B:00B0H.6       SYMBOL        PG_IFP_2
  B:00B0H.7       SYMBOL        PG_IFP_3
  B:00B0H.0       SYMBOL        PG_OP_0
  B:00B0H.1       SYMBOL        PG_OP_1
  B:00B0H.2       SYMBOL        PG_OP_2
  B:00B0H.3       SYMBOL        PG_OP_3
  B:00B8H.4       SYMBOL        PS
  D:00D0H         SYMBOL        PSW
  B:00B8H.1       SYMBOL        PT0
  B:00B8H.3       SYMBOL        PT1
  B:00B8H.5       SYMBOL        PT2
  B:00B8H.0       SYMBOL        PX0
  B:00B8H.2       SYMBOL        PX1
  D:00F6H         SYMBOL        RA_AD0_RD
  D:00F7H         SYMBOL        RA_AD0_WR
  D:00F9H         SYMBOL        RA_AD1
  D:00FAH         SYMBOL        RA_AD2
  D:00FBH         SYMBOL        RA_AD3
  D:00F4H         SYMBOL        RA_CTRL
  D:00FCH         SYMBOL        RA_DA0
  D:00FDH         SYMBOL        RA_DA1
  D:00FEH         SYMBOL        RA_DA2
  D:00FFH         SYMBOL        RA_DA3
  B:0098H.2       SYMBOL        RB8
  D:00CBH         SYMBOL        RCAP2H
  D:00CAH         SYMBOL        RCAP2L
  B:00C8H.5       SYMBOL        RCLK
  B:00B0H.7       SYMBOL        RD
  B:0098H.4       SYMBOL        REN
  B:0098H.0       SYMBOL        RI
  B:00D0H.3       SYMBOL        RS0
  B:00D0H.4       SYMBOL        RS1
  B:00B0H.0       SYMBOL        RXD
  D:0099H         SYMBOL        SBUF
  B:0090H.7       SYMBOL        SCK
  D:0098H         SYMBOL        SCON
  B:0098H.7       SYMBOL        SM0
  B:0098H.6       SYMBOL        SM1
  B:0098H.5       SYMBOL        SM2
  D:0081H         SYMBOL        SP
  D:00D5H         SYMBOL        SPCR
  D:0086H         SYMBOL        SPDR
  D:00AAH         SYMBOL        SPSR
  B:0090H.4       SYMBOL        SS
  B:00B0H.4       SYMBOL        T0
  B:00B0H.5       SYMBOL        T1
  B:0090H.0       SYMBOL        T2
  D:00C8H         SYMBOL        T2CON
  B:0090H.1       SYMBOL        T2EX
  B:0098H.3       SYMBOL        TB8
  B:00C8H.4       SYMBOL        TCLK
BL51 BANKED LINKER/LOCATER V6.22.2.0                                                  11/30/2021  16:22:28  PAGE 65


  D:0088H         SYMBOL        TCON
  B:0088H.5       SYMBOL        TF0
  B:0088H.7       SYMBOL        TF1
  B:00C8H.7       SYMBOL        TF2
  D:008CH         SYMBOL        TH0
  D:008DH         SYMBOL        TH1
  D:00CDH         SYMBOL        TH2
  B:0098H.1       SYMBOL        TI
  D:008AH         SYMBOL        TL0
  D:008BH         SYMBOL        TL1
  D:00CCH         SYMBOL        TL2
  D:0089H         SYMBOL        TMOD
  B:0088H.4       SYMBOL        TR0
  B:0088H.6       SYMBOL        TR1
  B:00C8H.2       SYMBOL        TR2
  B:00B0H.1       SYMBOL        TXD
  B:00B0H.6       SYMBOL        WR
  N:2000H         SYMBOL        XDATALEN
  N:E000H         SYMBOL        XDATASTART
  C:536BH         LINE#         57
  C:536DH         LINE#         58
  C:536FH         LINE#         59
  C:5371H         LINE#         60
  C:5373H         LINE#         62
  C:5375H         LINE#         63
  C:5377H         LINE#         64
  C:5379H         LINE#         65
  C:537BH         LINE#         66
  C:537CH         LINE#         84
  C:537EH         LINE#         85
  C:5380H         LINE#         86
  C:5382H         LINE#         87
  C:5384H         LINE#         90
  C:5385H         LINE#         106
  C:5387H         LINE#         107
  C:5389H         LINE#         108
  C:538BH         LINE#         109
  C:538DH         LINE#         111
  -------         ENDMOD        H2IO

  -------         MODULE        H2FAN
  C:0000H         SYMBOL        _ICE_DUMMY_
  D:0090H         PUBLIC        P1
  D:00B0H         PUBLIC        P3
  D:00A8H         PUBLIC        IE
  D:00B8H         PUBLIC        IP
  D:0098H         PUBLIC        SCON
  D:0088H         PUBLIC        TCON
  D:00C8H         PUBLIC        T2CON
  D:00D0H         PUBLIC        PSW
  -------         ENDMOD        H2FAN

  -------         MODULE        H2EEE
  C:0000H         SYMBOL        _ICE_DUMMY_
  D:0090H         PUBLIC        P1
  D:00B0H         PUBLIC        P3
  D:00A8H         PUBLIC        IE
BL51 BANKED LINKER/LOCATER V6.22.2.0                                                  11/30/2021  16:22:28  PAGE 66


  D:00B8H         PUBLIC        IP
  D:0098H         PUBLIC        SCON
  D:0088H         PUBLIC        TCON
  D:00C8H         PUBLIC        T2CON
  D:00D0H         PUBLIC        PSW
  -------         ENDMOD        H2EEE

  -------         MODULE        H2PCS1G
  C:0000H         SYMBOL        _ICE_DUMMY_
  D:0090H         PUBLIC        P1
  D:00B0H         PUBLIC        P3
  B:00A8H.7       PUBLIC        EA
  D:00A8H         PUBLIC        IE
  D:00B8H         PUBLIC        IP
  C:6570H         PUBLIC        _h2_pcs1g_clause_37_control_set
  C:6F66H         PUBLIC        _h2_pcs1g_2_5g_link_status_get
  C:450FH         PUBLIC        _h2_pcs1g_clause_37_status_get
  D:0098H         PUBLIC        SCON
  D:0088H         PUBLIC        TCON
  C:58FDH         PUBLIC        _h2_pcs1g_100fx_status_get
  D:00C8H         PUBLIC        T2CON
  X:E49EH         SYMBOL        clause_37_flowcontrol
  C:51E2H         PUBLIC        _h2_pcs1g_setup
  C:7CFEH         PUBLIC        _h2_pcs1g_clock_set
  D:00D0H         PUBLIC        PSW
  C:5C93H         SYMBOL        Com005C
  C:5C93H         SYMBOL        L?0093
  C:5C93H         SYMBOL        L?0094
  C:5C98H         SYMBOL        L?0095
  C:5C9EH         SYMBOL        L?0096
  C:5CA9H         SYMBOL        L?0098
  C:5CA9H         SYMBOL        L?0099
  C:5CADH         SYMBOL        L?0100
  C:5CB6H         SYMBOL        L?0101
  C:5CBDH         SYMBOL        L?0102
  C:5CC8H         SYMBOL        L?0103
  C:5CCDH         SYMBOL        L?0104
  C:5CD4H         SYMBOL        L?0105
  C:5CD5H         SYMBOL        L?0106
  C:5CD6H         SYMBOL        L?0107
  C:5CF1H         SYMBOL        L?0110
  C:5CF4H         SYMBOL        L?0111
  C:5CF7H         SYMBOL        L?0112
  C:5D00H         SYMBOL        L?0114
  C:5D00H         SYMBOL        L?0115
  C:5D04H         SYMBOL        L?0116
  C:5D0BH         SYMBOL        L?0117
  C:5D0BH         SYMBOL        L?0118
  C:5D13H         SYMBOL        L?0120
  C:5D1FH         SYMBOL        L?0122
  C:5D1FH         SYMBOL        L?0123
  C:5D29H         SYMBOL        L?0125
  C:5D29H         SYMBOL        L?0126
  C:5D35H         SYMBOL        L?0127
  C:5D35H         SYMBOL        L?0128
  C:5D3FH         SYMBOL        L?0129
  C:5D3FH         SYMBOL        L?0130
BL51 BANKED LINKER/LOCATER V6.22.2.0                                                  11/30/2021  16:22:28  PAGE 67


  C:5D45H         SYMBOL        L?0131
  C:5D46H         SYMBOL        L?0132
  C:5D47H         SYMBOL        L?0133
  C:5D4DH         SYMBOL        L?0134
  C:5D4DH         SYMBOL        L?0135
  C:5D57H         SYMBOL        L?0136
  C:5D64H         SYMBOL        L?0137
  C:5D70H         SYMBOL        L?0138
  C:5D7CH         SYMBOL        L?0140
  C:5D86H         SYMBOL        L?0141
  C:5D90H         SYMBOL        L?0142
  C:5D9AH         SYMBOL        L?0143
  C:5DA4H         SYMBOL        L?0144
  C:5DAEH         SYMBOL        L?0145
  -------         PROC          COM005C
  -------         ENDPROC       COM005C
  -------         PROC          _H2_PCS1G_CLAUSE_37_CONTROL_SET
  X:E2EFH         SYMBOL        chip_port
  X:E2F0H         SYMBOL        flow_ctrl_mode
  -------         DO            
  X:E2F1H         SYMBOL        tgt
  X:E2F5H         SYMBOL        mac_if
  -------         ENDDO         
  C:6570H         LINE#         93
  C:6578H         LINE#         101
  C:6578H         LINE#         102
  C:6581H         LINE#         103
  C:658EH         LINE#         105
  C:659CH         LINE#         117
  C:65A1H         LINE#         126
  C:65B6H         LINE#         127
  C:65B9H         LINE#         136
  C:664BH         LINE#         137
  C:664BH         LINE#         139
  -------         ENDPROC       _H2_PCS1G_CLAUSE_37_CONTROL_SET
  C:470AH         SYMBOL        L?0119
  -------         PROC          _H2_PCS1G_CLAUSE_37_STATUS_GET
  X:E2DDH         SYMBOL        chip_port
  -------         DO            
  X:E2DEH         SYMBOL        value
  X:E2E2H         SYMBOL        lp_adv_ability
  X:E2E6H         SYMBOL        link
  X:E2E7H         SYMBOL        complete
  X:E2E8H         SYMBOL        lm
  X:E2E9H         SYMBOL        tgt
  X:E2EDH         SYMBOL        mac_if
  B:0020H.5       SYMBOL        synced_status
  B:0020H.6       SYMBOL        workaround_applied
  C:4533H         SYMBOL        get_status_again
  -------         DO            
  X:E2EEH         SYMBOL        sgmii_link
  -------         ENDDO         
  -------         ENDDO         
  C:450FH         LINE#         175
  C:4514H         LINE#         183
  C:4514H         LINE#         185
  C:4519H         LINE#         186
BL51 BANKED LINKER/LOCATER V6.22.2.0                                                  11/30/2021  16:22:28  PAGE 68


  C:4522H         LINE#         187
  C:452FH         LINE#         188
  C:4533H         LINE#         193
  C:4533H         LINE#         200
  C:453BH         LINE#         201
  C:455AH         LINE#         213
  C:456DH         LINE#         230
  C:4573H         LINE#         233
  C:458CH         LINE#         235
  C:458EH         LINE#         241
  C:45A4H         LINE#         242
  C:45A4H         LINE#         249
  C:45B7H         LINE#         270
  C:45BFH         LINE#         273
  C:45CBH         LINE#         278
  C:45D6H         LINE#         287
  C:45EDH         LINE#         291
  C:4600H         LINE#         292
  C:4605H         LINE#         295
  C:4615H         LINE#         299
  C:4622H         LINE#         315
  C:4638H         LINE#         318
  C:463AH         LINE#         319
  C:463DH         LINE#         320
  C:463DH         LINE#         321
  C:463DH         LINE#         324
  C:464EH         LINE#         325
  C:4659H         LINE#         326
  C:467AH         LINE#         328
  C:4689H         LINE#         329
  C:46A0H         LINE#         330
  C:46A7H         LINE#         331
  C:46A7H         LINE#         332
  C:46BAH         LINE#         333
  C:46C1H         LINE#         334
  C:46C1H         LINE#         336
  C:46C7H         LINE#         337
  C:46CFH         LINE#         338
  C:46CFH         LINE#         340
  C:46D5H         LINE#         341
  C:46DBH         LINE#         342
  C:46DBH         LINE#         343
  C:46E7H         LINE#         344
  C:46EAH         LINE#         345
  C:46FDH         LINE#         346
  C:4704H         LINE#         347
  C:4704H         LINE#         348
  C:4704H         LINE#         360
  C:4709H         LINE#         361
  -------         ENDPROC       _H2_PCS1G_CLAUSE_37_STATUS_GET
  C:5A33H         SYMBOL        L?0139
  -------         PROC          _H2_PCS1G_100FX_STATUS_GET
  D:0007H         SYMBOL        chip_port
  -------         DO            
  X:E2DDH         SYMBOL        value
  X:E2E1H         SYMBOL        tgt
  X:E2E5H         SYMBOL        link_mode
BL51 BANKED LINKER/LOCATER V6.22.2.0                                                  11/30/2021  16:22:28  PAGE 69


  -------         ENDDO         
  C:58FDH         LINE#         364
  C:58FDH         LINE#         372
  C:58FDH         LINE#         374
  C:5906H         LINE#         375
  C:590CH         LINE#         378
  C:5915H         LINE#         390
  C:5973H         LINE#         392
  C:5973H         LINE#         412
  C:598BH         LINE#         413
  C:5990H         LINE#         414
  C:5999H         LINE#         415
  C:5999H         LINE#         430
  C:5A27H         LINE#         431
  C:5A27H         LINE#         432
  C:5A2DH         LINE#         433
  C:5A2DH         LINE#         436
  C:5A32H         LINE#         437
  -------         ENDPROC       _H2_PCS1G_100FX_STATUS_GET
  -------         PROC          _H2_PCS1G_CLOCK_SET
  D:0007H         SYMBOL        chip_port
  X:E2E8H         SYMBOL        enable
  C:7CFEH         LINE#         440
  C:7D03H         LINE#         448
  C:7D03H         LINE#         466
  C:7D83H         LINE#         470
  -------         ENDPROC       _H2_PCS1G_CLOCK_SET
  C:52F2H         SYMBOL        L?0097
  C:5314H         SYMBOL        L?0108
  C:5332H         SYMBOL        L?0109
  C:534EH         SYMBOL        L?0113
  C:535DH         SYMBOL        L?0124
  -------         PROC          _H2_PCS1G_SETUP
  X:E2DAH         SYMBOL        chip_port
  X:E2DBH         SYMBOL        if_type
  -------         DO            
  X:E2DCH         SYMBOL        tgt
  -------         ENDDO         
  C:51E2H         LINE#         474
  C:51EAH         LINE#         482
  C:51EAH         LINE#         483
  C:51F3H         LINE#         485
  C:520DH         LINE#         486
  C:520DH         LINE#         487
  C:520DH         LINE#         501
  C:521CH         LINE#         502
  C:521CH         LINE#         509
  C:522EH         LINE#         514
  C:5239H         LINE#         521
  C:524DH         LINE#         526
  C:525BH         LINE#         531
  C:525EH         LINE#         535
  C:525EH         LINE#         537
  C:525EH         LINE#         552
  C:526DH         LINE#         553
  C:526DH         LINE#         558
  C:5279H         LINE#         565
BL51 BANKED LINKER/LOCATER V6.22.2.0                                                  11/30/2021  16:22:28  PAGE 70


  C:5282H         LINE#         570
  C:5290H         LINE#         575
  C:529EH         LINE#         579
  C:529EH         LINE#         581
  C:529EH         LINE#         593
  C:52B8H         LINE#         594
  C:52C2H         LINE#         601
  C:52D0H         LINE#         606
  C:52DDH         LINE#         611
  C:52F1H         LINE#         615
  C:52F1H         LINE#         617
  C:52F1H         LINE#         625
  C:52F1H         LINE#         626
  C:52F1H         LINE#         627
  -------         ENDPROC       _H2_PCS1G_SETUP
  C:7008H         SYMBOL        L?0121
  -------         PROC          _H2_PCS1G_2_5G_LINK_STATUS_GET
  D:0007H         SYMBOL        chip_port
  -------         DO            
  X:E2DDH         SYMBOL        tgt
  X:E2E1H         SYMBOL        reg_val
  X:E2E5H         SYMBOL        link_mode
  -------         ENDDO         
  C:6F66H         LINE#         630
  C:6F66H         LINE#         631
  C:6F66H         LINE#         632
  C:6F6FH         LINE#         634
  C:6F75H         LINE#         640
  C:6F78H         LINE#         641
  C:6F81H         LINE#         645
  C:6F8CH         LINE#         648
  C:6F9FH         LINE#         649
  C:6FA4H         LINE#         652
  C:6FB4H         LINE#         653
  C:6FB4H         LINE#         655
  C:6FB7H         LINE#         656
  C:6FC8H         LINE#         660
  C:6FDDH         LINE#         661
  C:6FDDH         LINE#         664
  C:6FF0H         LINE#         665
  C:6FFCH         LINE#         666
  C:7002H         LINE#         667
  C:7002H         LINE#         670
  C:7007H         LINE#         671
  -------         ENDPROC       _H2_PCS1G_2_5G_LINK_STATUS_GET
  -------         ENDMOD        H2PCS1G

  -------         MODULE        H2SDCFG
  C:0000H         SYMBOL        _ICE_DUMMY_
  C:8E9EH         PUBLIC        _h2_sd6g_write
  D:0090H         PUBLIC        P1
  C:0016H         PUBLIC        _h2_sd6g_cfg
  D:00B0H         PUBLIC        P3
  B:00A8H.7       PUBLIC        EA
  D:00A8H         PUBLIC        IE
  D:00B8H         PUBLIC        IP
  D:0098H         PUBLIC        SCON
BL51 BANKED LINKER/LOCATER V6.22.2.0                                                  11/30/2021  16:22:28  PAGE 71


  D:0088H         PUBLIC        TCON
  C:9498H         PUBLIC        _h2_sd6g_cfg_change
  C:91A4H         PUBLIC        h2_serdes_macro_config
  C:7017H         PUBLIC        h2_serdes_macro_phase_loop_locked
  D:00C8H         PUBLIC        T2CON
  C:8CF4H         PUBLIC        _h2_sd1g_read
  C:8D89H         PUBLIC        _h2_sd6g_read
  C:8E17H         PUBLIC        _h2_sd1g_write
  D:00D0H         PUBLIC        PSW
  C:35D5H         PUBLIC        _h2_sd1g_cfg
  C:67FDH         SYMBOL        Com0074
  C:67FDH         SYMBOL        L?0117
  C:6806H         SYMBOL        L?0118
  C:6809H         SYMBOL        L?0119
  C:6812H         SYMBOL        L?0129
  C:6812H         SYMBOL        L?0130
  C:681CH         SYMBOL        L?0134
  C:681CH         SYMBOL        L?0135
  C:6824H         SYMBOL        L?0140
  C:6824H         SYMBOL        L?0141
  C:6826H         SYMBOL        L?0142
  C:6829H         SYMBOL        L?0143
  C:6830H         SYMBOL        L?0145
  C:6830H         SYMBOL        L?0146
  C:683CH         SYMBOL        L?0150
  C:683EH         SYMBOL        L?0151
  C:6840H         SYMBOL        L?0152
  C:6847H         SYMBOL        L?0153
  C:6847H         SYMBOL        L?0154
  C:6853H         SYMBOL        L?0159
  C:6858H         SYMBOL        L?0160
  C:6861H         SYMBOL        L?0161
  C:6861H         SYMBOL        L?0162
  C:686FH         SYMBOL        L?0163
  C:6871H         SYMBOL        L?0164
  C:687AH         SYMBOL        L?0165
  C:687AH         SYMBOL        L?0166
  C:6886H         SYMBOL        L?0167
  C:6886H         SYMBOL        L?0168
  C:688DH         SYMBOL        L?0169
  C:6893H         SYMBOL        L?0170
  C:689AH         SYMBOL        L?0171
  C:689BH         SYMBOL        L?0172
  C:68A2H         SYMBOL        L?0173
  C:68A4H         SYMBOL        L?0174
  C:68ACH         SYMBOL        L?0177
  C:68B8H         SYMBOL        L?0179
  C:68C3H         SYMBOL        L?0180
  -------         PROC          COM0074
  -------         ENDPROC       COM0074
  -------         PROC          _H2_SD6G_WRITE
  D:0004H         SYMBOL        addr
  -------         DO            
  X:E394H         SYMBOL        dat
  -------         ENDDO         
  C:8E9EH         LINE#         92
  C:8E9EH         LINE#         100
BL51 BANKED LINKER/LOCATER V6.22.2.0                                                  11/30/2021  16:22:28  PAGE 72


  C:8E9EH         LINE#         101
  C:8E9EH         LINE#         121
  C:8EB3H         LINE#         124
  C:8EB3H         LINE#         125
  C:8EC1H         LINE#         126
  C:8EC9H         LINE#         129
  -------         ENDPROC       _H2_SD6G_WRITE
  -------         PROC          _H2_SD6G_READ
  D:0004H         SYMBOL        addr
  -------         DO            
  X:E394H         SYMBOL        dat
  -------         ENDDO         
  C:8D89H         LINE#         132
  C:8D89H         LINE#         140
  C:8D89H         LINE#         141
  C:8D89H         LINE#         161
  C:8D9EH         LINE#         164
  C:8D9EH         LINE#         165
  C:8DACH         LINE#         166
  C:8DB9H         LINE#         169
  -------         ENDPROC       _H2_SD6G_READ
  C:0C6AH         SYMBOL        L?0114
  C:0C8EH         SYMBOL        L?0115
  C:0CBAH         SYMBOL        L?0120
  C:0CCFH         SYMBOL        L?0121
  C:0CEBH         SYMBOL        L?0122
  C:0D05H         SYMBOL        L?0123
  C:0D18H         SYMBOL        L?0124
  C:0D2DH         SYMBOL        L?0125
  C:0D40H         SYMBOL        L?0126
  C:0D53H         SYMBOL        L?0127
  C:0D66H         SYMBOL        L?0128
  C:0D7FH         SYMBOL        L?0131
  C:0D94H         SYMBOL        L?0132
  C:0DA7H         SYMBOL        L?0133
  C:0DBAH         SYMBOL        L?0136
  C:0DC7H         SYMBOL        L?0137
  C:0DD6H         SYMBOL        L?0138
  C:0DE5H         SYMBOL        L?0144
  C:0DF3H         SYMBOL        L?0149
  C:0E04H         SYMBOL        L?0156
  C:0E11H         SYMBOL        L?0157
  C:0E1BH         SYMBOL        L?0175
  -------         PROC          _H2_SD6G_CFG
  X:E2DFH         SYMBOL        mode
  X:E2E0H         SYMBOL        addr
  -------         DO            
  X:E2E4H         SYMBOL        ob_ena1v_mode
  X:E2E8H         SYMBOL        ob_post0
  X:E2ECH         SYMBOL        ob_prec
  X:E2F0H         SYMBOL        ob_ena_cas
  X:E2F4H         SYMBOL        ob_lev
  X:E2F8H         SYMBOL        ob_idle
  X:E2FCH         SYMBOL        des_phs_ctrl
  X:E300H         SYMBOL        des_cpmd_sel
  X:E304H         SYMBOL        des_bw_ana
  X:E308H         SYMBOL        ib_sig_det_clk_sel
BL51 BANKED LINKER/LOCATER V6.22.2.0                                                  11/30/2021  16:22:28  PAGE 73


  X:E30CH         SYMBOL        ser_alisel
  X:E310H         SYMBOL        ser_enali
  X:E314H         SYMBOL        pll_div4
  X:E318H         SYMBOL        pll_ena_rot
  X:E31CH         SYMBOL        pll_fsm_ctrl_data
  X:E320H         SYMBOL        pll_rot_dir
  X:E324H         SYMBOL        pll_rot_frq
  X:E328H         SYMBOL        hrate
  X:E32CH         SYMBOL        qrate
  X:E330H         SYMBOL        if_mode
  X:E334H         SYMBOL        des_100fx_cpmd_ena
  X:E338H         SYMBOL        rx_lpi_mode_ena
  X:E33CH         SYMBOL        tx_lpi_mode_ena
  X:E340H         SYMBOL        ib_concur
  X:E344H         SYMBOL        ena_lane
  X:E348H         SYMBOL        ib_sig_det_ena
  X:E34CH         SYMBOL        ib_reg_ena
  X:E350H         SYMBOL        ib_sam_ena
  X:E354H         SYMBOL        ib_eqz_ena
  X:E358H         SYMBOL        ib_urge
  X:E35CH         SYMBOL        test_mode
  X:E360H         SYMBOL        test_pattern
  X:E364H         SYMBOL        ib_filt_hp
  X:E368H         SYMBOL        ib_filt_mid
  X:E36CH         SYMBOL        ib_filt_lp
  X:E370H         SYMBOL        ib_filt_offset
  X:E374H         SYMBOL        ib_frc_hp
  X:E378H         SYMBOL        ib_frc_mid
  X:E37CH         SYMBOL        ib_frc_lp
  X:E380H         SYMBOL        ib_frc_offset
  X:E384H         SYMBOL        ib_ini_hp
  X:E388H         SYMBOL        ib_ini_mid
  X:E38CH         SYMBOL        ib_ini_lp
  X:E390H         SYMBOL        ib_ini_offset
  -------         ENDDO         
  C:0016H         LINE#         172
  C:001CH         LINE#         407
  C:001CH         LINE#         408
  C:0026H         LINE#         409
  C:0030H         LINE#         410
  C:003AH         LINE#         411
  C:0044H         LINE#         412
  C:004EH         LINE#         413
  C:0058H         LINE#         414
  C:0062H         LINE#         415
  C:006CH         LINE#         416
  C:0076H         LINE#         417
  C:0080H         LINE#         418
  C:008AH         LINE#         419
  C:0094H         LINE#         420
  C:009EH         LINE#         421
  C:00A8H         LINE#         422
  C:00B2H         LINE#         423
  C:00BCH         LINE#         424
  C:00C6H         LINE#         425
  C:00D0H         LINE#         426
  C:00DAH         LINE#         427
BL51 BANKED LINKER/LOCATER V6.22.2.0                                                  11/30/2021  16:22:28  PAGE 74


  C:00E4H         LINE#         428
  C:00EEH         LINE#         429
  C:00F8H         LINE#         430
  C:0102H         LINE#         431
  C:010CH         LINE#         432
  C:0116H         LINE#         433
  C:0120H         LINE#         434
  C:012AH         LINE#         435
  C:0134H         LINE#         436
  C:013EH         LINE#         437
  C:0148H         LINE#         438
  C:0152H         LINE#         439
  C:015CH         LINE#         440
  C:0184H         LINE#         441
  C:01ACH         LINE#         442
  C:01D4H         LINE#         444
  C:01FAH         LINE#         445
  C:01FAH         LINE#         446
  C:0204H         LINE#         447
  C:020EH         LINE#         448
  C:0218H         LINE#         449
  C:0222H         LINE#         450
  C:022CH         LINE#         451
  C:0236H         LINE#         452
  C:0240H         LINE#         453
  C:024AH         LINE#         454
  C:0254H         LINE#         455
  C:025EH         LINE#         456
  C:0268H         LINE#         457
  C:0272H         LINE#         458
  C:027CH         LINE#         459
  C:0286H         LINE#         460
  C:0290H         LINE#         461
  C:029AH         LINE#         462
  C:02A4H         LINE#         463
  C:02A7H         LINE#         464
  C:02A7H         LINE#         465
  C:02B1H         LINE#         466
  C:02BBH         LINE#         467
  C:02C5H         LINE#         468
  C:02CFH         LINE#         469
  C:02D9H         LINE#         470
  C:02E3H         LINE#         471
  C:02EDH         LINE#         472
  C:02F7H         LINE#         473
  C:0301H         LINE#         474
  C:030BH         LINE#         475
  C:0315H         LINE#         476
  C:031FH         LINE#         477
  C:0329H         LINE#         478
  C:0333H         LINE#         479
  C:0336H         LINE#         480
  C:0336H         LINE#         481
  C:0340H         LINE#         482
  C:034AH         LINE#         483
  C:0354H         LINE#         484
  C:035EH         LINE#         485
BL51 BANKED LINKER/LOCATER V6.22.2.0                                                  11/30/2021  16:22:28  PAGE 75


  C:0368H         LINE#         486
  C:0372H         LINE#         487
  C:037CH         LINE#         488
  C:0386H         LINE#         489
  C:0390H         LINE#         490
  C:039AH         LINE#         491
  C:03A4H         LINE#         492
  C:03AEH         LINE#         493
  C:03B8H         LINE#         494
  C:03C2H         LINE#         495
  C:03C5H         LINE#         496
  C:03C5H         LINE#         497
  C:03CFH         LINE#         498
  C:03D9H         LINE#         499
  C:03E3H         LINE#         500
  C:03EDH         LINE#         501
  C:03F7H         LINE#         502
  C:0401H         LINE#         503
  C:040BH         LINE#         504
  C:0415H         LINE#         505
  C:041FH         LINE#         506
  C:0422H         LINE#         507
  C:0422H         LINE#         508
  C:0422H         LINE#         509
  C:0422H         LINE#         510
  C:0425H         LINE#         511
  C:0425H         LINE#         512
  C:042FH         LINE#         513
  C:0439H         LINE#         514
  C:0443H         LINE#         515
  C:044DH         LINE#         516
  C:0457H         LINE#         517
  C:0461H         LINE#         518
  C:046BH         LINE#         519
  C:0475H         LINE#         520
  C:047FH         LINE#         521
  C:0489H         LINE#         522
  C:0493H         LINE#         523
  C:049DH         LINE#         524
  C:04A7H         LINE#         586
  C:04B1H         LINE#         587
  C:04BBH         LINE#         588
  C:04C5H         LINE#         589
  C:04CFH         LINE#         591
  C:04D9H         LINE#         592
  C:04E3H         LINE#         593
  C:04EDH         LINE#         594
  C:04F7H         LINE#         596
  C:0501H         LINE#         597
  C:050BH         LINE#         598
  C:0515H         LINE#         599
  C:051FH         LINE#         601
  C:0529H         LINE#         602
  C:0533H         LINE#         603
  C:053DH         LINE#         604
  C:0547H         LINE#         605
  C:054AH         LINE#         606
BL51 BANKED LINKER/LOCATER V6.22.2.0                                                  11/30/2021  16:22:28  PAGE 76


  C:054AH         LINE#         607
  C:0554H         LINE#         608
  C:055EH         LINE#         609
  C:0568H         LINE#         610
  C:0572H         LINE#         611
  C:057CH         LINE#         612
  C:0586H         LINE#         613
  C:0590H         LINE#         614
  C:059AH         LINE#         615
  C:05A4H         LINE#         616
  C:05AEH         LINE#         617
  C:05AEH         LINE#         618
  C:05AEH         LINE#         619
  C:05B0H         LINE#         620
  C:05B0H         LINE#         621
  C:05BAH         LINE#         622
  C:05C4H         LINE#         623
  C:05CEH         LINE#         624
  C:05D8H         LINE#         625
  C:05E2H         LINE#         626
  C:05ECH         LINE#         627
  C:05F6H         LINE#         628
  C:0600H         LINE#         629
  C:060AH         LINE#         630
  C:0614H         LINE#         631
  C:061EH         LINE#         632
  C:0628H         LINE#         633
  C:062BH         LINE#         634
  C:062DH         LINE#         635
  C:062DH         LINE#         636
  C:0637H         LINE#         637
  C:0639H         LINE#         638
  C:0639H         LINE#         639
  C:0643H         LINE#         640
  C:064DH         LINE#         641
  C:064FH         LINE#         642
  C:064FH         LINE#         643
  C:0659H         LINE#         644
  C:0663H         LINE#         645
  C:066DH         LINE#         646
  C:0677H         LINE#         647
  C:0681H         LINE#         648
  C:068BH         LINE#         649
  C:068BH         LINE#         650
  C:068BH         LINE#         657
  C:068BH         LINE#         659
  C:0694H         LINE#         665
  C:06B2H         LINE#         667
  C:06BAH         LINE#         669
  C:06BEH         LINE#         671
  C:06BEH         LINE#         674
  C:06D3H         LINE#         677
  C:06E5H         LINE#         680
  C:06EBH         LINE#         683
  C:06F4H         LINE#         696
  C:07BDH         LINE#         699
  C:07C0H         LINE#         700
BL51 BANKED LINKER/LOCATER V6.22.2.0                                                  11/30/2021  16:22:28  PAGE 77


  C:07C3H         LINE#         705
  C:07E4H         LINE#         708
  C:07FCH         LINE#         711
  C:081CH         LINE#         714
  C:0831H         LINE#         717
  C:0849H         LINE#         720
  C:085AH         LINE#         723
  C:086EH         LINE#         726
  C:0882H         LINE#         729
  C:0893H         LINE#         732
  C:0893H         LINE#         743
  C:0919H         LINE#         752
  C:09B4H         LINE#         755
  C:09CFH         LINE#         764
  C:0A2FH         LINE#         769
  C:0A3DH         LINE#         772
  C:0A4EH         LINE#         775
  C:0A6CH         LINE#         778
  C:0A88H         LINE#         781
  C:0AA7H         LINE#         784
  C:0AC0H         LINE#         787
  C:0ADFH         LINE#         790
  C:0B02H         LINE#         793
  C:0B05H         LINE#         801
  C:0B0DH         LINE#         806
  C:0B18H         LINE#         809
  C:0B37H         LINE#         812
  C:0B54H         LINE#         815
  C:0B71H         LINE#         818
  C:0B96H         LINE#         821
  C:0BB7H         LINE#         824
  C:0BD6H         LINE#         827
  C:0BF5H         LINE#         828
  C:0BF8H         LINE#         833
  C:0C01H         LINE#         834
  C:0C04H         LINE#         837
  C:0C09H         LINE#         842
  C:0C1CH         LINE#         845
  C:0C27H         LINE#         846
  C:0C2AH         LINE#         849
  C:0C2FH         LINE#         854
  C:0C2FH         LINE#         857
  C:0C53H         LINE#         860
  C:0C60H         LINE#         861
  C:0C69H         LINE#         862
  -------         ENDPROC       _H2_SD6G_CFG
  -------         PROC          H2_SERDES_MACRO_CONFIG
  C:91A4H         LINE#         869
  C:91A4H         LINE#         870
  C:91A4H         LINE#         917
  C:91B3H         LINE#         918
  -------         ENDPROC       H2_SERDES_MACRO_CONFIG
  -------         PROC          _H2_SD6G_CFG_CHANGE
  D:0007H         SYMBOL        mode
  X:E2DBH         SYMBOL        addr
  C:9498H         LINE#         971
  C:9498H         LINE#         972
BL51 BANKED LINKER/LOCATER V6.22.2.0                                                  11/30/2021  16:22:28  PAGE 78


  C:9498H         LINE#         985
  -------         ENDPROC       _H2_SD6G_CFG_CHANGE
  -------         PROC          _H2_SD1G_WRITE
  D:0004H         SYMBOL        addr
  -------         DO            
  X:E303H         SYMBOL        dat
  -------         ENDDO         
  C:8E17H         LINE#         991
  C:8E17H         LINE#         992
  C:8E17H         LINE#         993
  C:8E17H         LINE#         998
  C:8E2DH         LINE#         1001
  C:8E2DH         LINE#         1002
  C:8E3BH         LINE#         1003
  C:8E43H         LINE#         1005
  -------         ENDPROC       _H2_SD1G_WRITE
  -------         PROC          _H2_SD1G_READ
  D:0004H         SYMBOL        addr
  -------         DO            
  X:E303H         SYMBOL        dat
  -------         ENDDO         
  C:8CF4H         LINE#         1007
  C:8CF4H         LINE#         1008
  C:8CF4H         LINE#         1009
  C:8CF4H         LINE#         1014
  C:8D0AH         LINE#         1017
  C:8D0AH         LINE#         1018
  C:8D18H         LINE#         1019
  C:8D25H         LINE#         1021
  -------         ENDPROC       _H2_SD1G_READ
  C:38D1H         SYMBOL        L?0139
  C:38E2H         SYMBOL        L?0147
  C:38EFH         SYMBOL        L?0158
  C:38FCH         SYMBOL        L?0176
  C:3906H         SYMBOL        L?0178
  -------         PROC          _H2_SD1G_CFG
  X:E2DAH         SYMBOL        mode
  X:E2DBH         SYMBOL        addr
  -------         DO            
  X:E2DFH         SYMBOL        ena_lane
  X:E2E0H         SYMBOL        if_100fx
  X:E2E1H         SYMBOL        ena_dc_coupling
  X:E2E2H         SYMBOL        ob_idle
  X:E2E3H         SYMBOL        ob_amp_ctrl
  X:E2E7H         SYMBOL        cpmd_sel
  X:E2EBH         SYMBOL        mbtr_ctrl
  X:E2EFH         SYMBOL        des_bw_ana
  X:E2F3H         SYMBOL        test_mode
  X:E2F7H         SYMBOL        test_pattern
  X:E2FBH         SYMBOL        des_phs_ctrl
  X:E2FFH         SYMBOL        ib_ena_cmv_term
  -------         ENDDO         
  C:35D5H         LINE#         1025
  C:35DBH         LINE#         1026
  C:35DBH         LINE#         1028
  C:35E8H         LINE#         1029
  C:3622H         LINE#         1030
BL51 BANKED LINKER/LOCATER V6.22.2.0                                                  11/30/2021  16:22:28  PAGE 79


  C:3636H         LINE#         1032
  C:364EH         LINE#         1033
  C:364EH         LINE#         1034
  C:3658H         LINE#         1035
  C:365AH         LINE#         1036
  C:365AH         LINE#         1037
  C:3664H         LINE#         1038
  C:366AH         LINE#         1039
  C:3674H         LINE#         1040
  C:367EH         LINE#         1041
  C:3684H         LINE#         1042
  C:368EH         LINE#         1043
  C:3698H         LINE#         1044
  C:369BH         LINE#         1045
  C:369DH         LINE#         1046
  C:369DH         LINE#         1047
  C:36A7H         LINE#         1048
  C:36A9H         LINE#         1049
  C:36A9H         LINE#         1050
  C:36AEH         LINE#         1051
  C:36B8H         LINE#         1052
  C:36BAH         LINE#         1053
  C:36BAH         LINE#         1054
  C:36C0H         LINE#         1055
  C:36C2H         LINE#         1056
  C:36C2H         LINE#         1057
  C:36CCH         LINE#         1058
  C:36D6H         LINE#         1059
  C:36D6H         LINE#         1060
  C:36D6H         LINE#         1067
  C:36D6H         LINE#         1069
  C:36DFH         LINE#         1073
  C:370BH         LINE#         1075
  C:3713H         LINE#         1077
  C:3717H         LINE#         1079
  C:3717H         LINE#         1083
  C:372CH         LINE#         1086
  C:373EH         LINE#         1091
  C:3752H         LINE#         1102
  C:37D0H         LINE#         1113
  C:384CH         LINE#         1120
  C:3872H         LINE#         1125
  C:3883H         LINE#         1130
  C:38A7H         LINE#         1131
  C:38AAH         LINE#         1136
  C:38B9H         LINE#         1137
  C:38BCH         LINE#         1142
  C:38C7H         LINE#         1143
  C:38D0H         LINE#         1144
  -------         ENDPROC       _H2_SD1G_CFG
  C:7096H         SYMBOL        L?0148
  C:70ACH         SYMBOL        L?0155
  C:70BAH         SYMBOL        L?0181
  -------         PROC          H2_SERDES_MACRO_PHASE_LOOP_LOCKED
  -------         DO            
  D:0004H         SYMBOL        locked
  -------         ENDDO         
BL51 BANKED LINKER/LOCATER V6.22.2.0                                                  11/30/2021  16:22:28  PAGE 80


  C:7017H         LINE#         1149
  C:7017H         LINE#         1157
  C:7017H         LINE#         1158
  C:7017H         LINE#         1204
  C:7032H         LINE#         1207
  C:703FH         LINE#         1210
  C:7055H         LINE#         1213
  C:7069H         LINE#         1218
  C:7075H         LINE#         1219
  C:707AH         LINE#         1222
  C:7080H         LINE#         1223
  C:7085H         LINE#         1226
  C:7091H         LINE#         1227
  C:7095H         LINE#         1229
  -------         ENDPROC       H2_SERDES_MACRO_PHASE_LOOP_LOCKED
  -------         ENDMOD        H2SDCFG

  -------         MODULE        H2STATS
  C:0000H         SYMBOL        _ICE_DUMMY_
  D:0090H         PUBLIC        P1
  D:00B0H         PUBLIC        P3
  B:00A8H.7       PUBLIC        EA
  C:54E2H         PUBLIC        _print_port_statistics
  D:00A8H         PUBLIC        IE
  D:00B8H         PUBLIC        IP
  D:0098H         PUBLIC        SCON
  C:77E2H         PUBLIC        _h2_stats_counter_get
  D:0088H         PUBLIC        TCON
  X:E485H         PUBLIC        GPARM_break_show_statistic_flag
  X:E486H         SYMBOL        rx_counters
  X:E492H         SYMBOL        tx_counters
  D:00C8H         PUBLIC        T2CON
  C:7E8EH         SYMBOL        __h2_stats_counter_get_private
  D:00D0H         PUBLIC        PSW
  C:92FAH         PUBLIC        _h2_stats_counter_clear
  C:95DEH         SYMBOL        Com001F
  C:95DEH         SYMBOL        L?0032
  -------         PROC          COM001F
  -------         ENDPROC       COM001F
  -------         PROC          __H2_STATS_COUNTER_GET_PRIVATE
  D:0003H         SYMBOL        chip_port
  X:E2E3H         SYMBOL        counter_id
  -------         DO            
  X:E2E5H         SYMBOL        temp
  D:0004H         SYMBOL        tgt
  -------         ENDDO         
  C:7E8EH         LINE#         89
  C:7E98H         LINE#         90
  C:7E98H         LINE#         91
  C:7EA0H         LINE#         97
  C:7EABH         LINE#         98
  C:7EB1H         LINE#         99
  C:7EB1H         LINE#         118
  C:7ED5H         LINE#         119
  C:7EFAH         LINE#         120
  C:7F07H         LINE#         124
  C:7F0DH         LINE#         125
BL51 BANKED LINKER/LOCATER V6.22.2.0                                                  11/30/2021  16:22:28  PAGE 81


  -------         ENDPROC       __H2_STATS_COUNTER_GET_PRIVATE
  -------         PROC          _H2_STATS_COUNTER_GET
  X:E2DAH         SYMBOL        chip_port
  D:0004H         SYMBOL        counter_id
  -------         DO            
  X:E2DBH         SYMBOL        cnt
  X:E2DFH         SYMBOL        i
  X:E2E0H         SYMBOL        p
  -------         ENDDO         
  C:77E2H         LINE#         127
  C:77E7H         LINE#         128
  C:77E7H         LINE#         133
  C:77EDH         LINE#         134
  C:77F3H         LINE#         135
  C:77F5H         LINE#         136
  C:77FBH         LINE#         137
  C:7807H         LINE#         138
  C:7809H         LINE#         139
  C:7811H         LINE#         140
  C:7811H         LINE#         141
  C:7811H         LINE#         148
  C:782DH         LINE#         149
  C:786DH         LINE#         150
  C:7875H         LINE#         152
  C:787BH         LINE#         153
  -------         ENDPROC       _H2_STATS_COUNTER_GET
  -------         PROC          _H2_STATS_COUNTER_CLEAR
  D:0007H         SYMBOL        chip_port
  C:92FAH         LINE#         155
  C:92FAH         LINE#         156
  C:92FAH         LINE#         159
  C:9313H         LINE#         161
  -------         ENDPROC       _H2_STATS_COUNTER_CLEAR
  C:5639H         SYMBOL        L?0029
  C:564AH         SYMBOL        L?0030
  -------         PROC          _PRINT_PORT_STATISTICS
  X:E2CFH         SYMBOL        chip_port
  -------         DO            
  C:7D93H         SYMBOL        prefix_txt
  C:7D95H         SYMBOL        display_tab_1
  X:E2D0H         SYMBOL        j
  X:E2D1H         SYMBOL        c
  D:0005H         SYMBOL        display_header
  X:E2D2H         SYMBOL        indentation
  X:E2D3H         SYMBOL        rx_txt_no
  X:E2D4H         SYMBOL        spaces
  X:E2D5H         SYMBOL        tx_txt_no
  X:E2D6H         SYMBOL        reg_addr
  D:0004H         SYMBOL        reg_val
  -------         ENDDO         
  C:54E2H         LINE#         164
  C:54E7H         LINE#         172
  C:54E7H         LINE#         248
  C:54FDH         LINE#         253
  C:54FFH         LINE#         254
  C:5502H         LINE#         256
  C:5503H         LINE#         257
BL51 BANKED LINKER/LOCATER V6.22.2.0                                                  11/30/2021  16:22:28  PAGE 82


  C:5509H         LINE#         258
  C:550DH         LINE#         259
  C:5511H         LINE#         260
  C:5514H         LINE#         261
  C:551CH         LINE#         263
  C:551CH         LINE#         264
  C:551CH         LINE#         265
  C:5522H         LINE#         266
  C:5526H         LINE#         267
  C:552AH         LINE#         268
  C:5532H         LINE#         270
  C:5532H         LINE#         271
  C:5532H         LINE#         272
  C:5538H         LINE#         273
  C:553CH         LINE#         274
  C:5540H         LINE#         284
  C:5540H         LINE#         286
  C:5543H         LINE#         287
  C:5543H         LINE#         288
  C:5543H         LINE#         289
  C:5549H         LINE#         290
  C:5549H         LINE#         291
  C:554FH         LINE#         292
  C:554FH         LINE#         294
  C:554FH         LINE#         295
  C:5558H         LINE#         296
  C:5558H         LINE#         297
  C:5561H         LINE#         298
  C:5564H         LINE#         299
  C:5564H         LINE#         304
  C:5579H         LINE#         305
  C:55B0H         LINE#         306
  C:55BBH         LINE#         307
  C:55E3H         LINE#         308
  C:55F5H         LINE#         309
  C:5607H         LINE#         310
  C:560AH         LINE#         311
  C:560CH         LINE#         312
  C:5615H         LINE#         313
  C:5615H         LINE#         314
  C:561AH         LINE#         315
  C:5623H         LINE#         316
  C:5626H         LINE#         318
  C:562CH         LINE#         319
  C:562EH         LINE#         320
  C:562FH         LINE#         321
  C:562FH         LINE#         322
  C:5638H         LINE#         323
  -------         ENDPROC       _PRINT_PORT_STATISTICS
  -------         ENDMOD        H2STATS

  -------         MODULE        H2GPIOS
  C:0000H         SYMBOL        _ICE_DUMMY_
  D:0090H         PUBLIC        P1
  D:00B0H         PUBLIC        P3
  B:00A8H.7       PUBLIC        EA
  D:00A8H         PUBLIC        IE
BL51 BANKED LINKER/LOCATER V6.22.2.0                                                  11/30/2021  16:22:28  PAGE 83


  D:00B8H         PUBLIC        IP
  C:89E3H         PUBLIC        _h2_gpio_read
  C:57ACH         PUBLIC        _h2_sgpio_write
  D:0098H         PUBLIC        SCON
  D:0088H         PUBLIC        TCON
  C:8D26H         PUBLIC        _h2_gpio_write
  C:6489H         PUBLIC        _h2_gpio_mode_set
  D:00C8H         PUBLIC        T2CON
  C:6B15H         PUBLIC        h2_sgpio_enable
  D:00D0H         PUBLIC        PSW
  C:7ACDH         SYMBOL        Com0029
  C:7ACDH         SYMBOL        L?0042
  C:7ACDH         SYMBOL        L?0043
  C:7AEEH         SYMBOL        L?0044
  C:7AF1H         SYMBOL        L?0045
  C:7AF9H         SYMBOL        L?0046
  C:7B08H         SYMBOL        L?0048
  C:7B13H         SYMBOL        L?0049
  C:7B1AH         SYMBOL        L?0050
  C:7B1AH         SYMBOL        L?0051
  C:7B28H         SYMBOL        L?0052
  C:7B2DH         SYMBOL        L?0053
  C:7B37H         SYMBOL        L?0054
  C:7B37H         SYMBOL        L?0055
  C:7B43H         SYMBOL        L?0057
  C:7B45H         SYMBOL        L?0058
  C:7B4CH         SYMBOL        L?0059
  -------         PROC          COM0029
  -------         ENDPROC       COM0029
  C:6523H         SYMBOL        L?0040
  C:6558H         SYMBOL        L?0047
  C:6564H         SYMBOL        L?0056
  -------         PROC          _H2_GPIO_MODE_SET
  D:0003H         SYMBOL        gpio_no
  X:E2CCH         SYMBOL        mode
  -------         DO            
  X:E2CDH         SYMBOL        mask
  -------         ENDDO         
  C:6489H         LINE#         81
  C:648EH         LINE#         89
  C:648EH         LINE#         90
  C:649AH         LINE#         92
  C:64A5H         LINE#         93
  C:64B5H         LINE#         94
  C:64B5H         LINE#         95
  C:64B5H         LINE#         96
  C:64B5H         LINE#         97
  C:64B8H         LINE#         98
  C:64C0H         LINE#         99
  C:64DBH         LINE#         100
  C:64E3H         LINE#         101
  C:64EBH         LINE#         102
  C:64EEH         LINE#         103
  C:64EEH         LINE#         104
  C:64FBH         LINE#         105
  C:6500H         LINE#         106
  C:6502H         LINE#         107
BL51 BANKED LINKER/LOCATER V6.22.2.0                                                  11/30/2021  16:22:28  PAGE 84


  C:6502H         LINE#         108
  C:650DH         LINE#         109
  C:6522H         LINE#         110
  C:6522H         LINE#         111
  C:6522H         LINE#         112
  -------         ENDPROC       _H2_GPIO_MODE_SET
  -------         PROC          _H2_GPIO_READ
  D:0003H         SYMBOL        gpio_no
  -------         DO            
  X:E2DCH         SYMBOL        mask
  X:E2E0H         SYMBOL        value
  -------         ENDDO         
  C:89E3H         LINE#         115
  C:89E3H         LINE#         123
  C:89E3H         LINE#         124
  C:89F1H         LINE#         126
  C:8A06H         LINE#         127
  C:8A20H         LINE#         128
  -------         ENDPROC       _H2_GPIO_READ
  -------         PROC          _H2_GPIO_WRITE
  X:E2DAH         SYMBOL        gpio_no
  D:0005H         SYMBOL        output_high
  C:8D26H         LINE#         131
  C:8D2BH         LINE#         139
  C:8D2BH         LINE#         141
  C:8D2EH         LINE#         144
  C:8D3BH         LINE#         145
  C:8D3DH         LINE#         148
  C:8D57H         LINE#         149
  C:8D57H         LINE#         159
  -------         ENDPROC       _H2_GPIO_WRITE
  -------         PROC          _H2_SGPIO_WRITE
  X:E2D0H         SYMBOL        sgpio_no
  D:0005H         SYMBOL        bit_no
  X:E2D1H         SYMBOL        mode
  -------         DO            
  X:E2D3H         SYMBOL        inversed_polarity
  -------         ENDDO         
  C:57ACH         LINE#         180
  C:57B7H         LINE#         188
  C:57B7H         LINE#         190
  C:57BAH         LINE#         193
  C:57D1H         LINE#         210
  C:57D1H         LINE#         215
  C:5808H         LINE#         216
  C:580BH         LINE#         217
  C:580BH         LINE#         222
  C:5856H         LINE#         223
  C:5859H         LINE#         224
  C:5859H         LINE#         229
  C:58A1H         LINE#         230
  C:58A3H         LINE#         231
  C:58A3H         LINE#         236
  C:58F8H         LINE#         237
  C:58F8H         LINE#         240
  C:58F8H         LINE#         241
  C:58F8H         LINE#         242
BL51 BANKED LINKER/LOCATER V6.22.2.0                                                  11/30/2021  16:22:28  PAGE 85


  C:58F8H         LINE#         244
  -------         ENDPROC       _H2_SGPIO_WRITE
  C:6BC6H         SYMBOL        L?0060
  -------         PROC          H2_SGPIO_ENABLE
  -------         DO            
  X:E2CAH         SYMBOL        gpio
  -------         ENDDO         
  C:6B15H         LINE#         264
  C:6B15H         LINE#         272
  C:6B15H         LINE#         278
  C:6B28H         LINE#         279
  C:6B2DH         LINE#         280
  C:6B35H         LINE#         312
  C:6B47H         LINE#         317
  C:6B6AH         LINE#         324
  C:6B7CH         LINE#         329
  C:6B8FH         LINE#         330
  C:6BA6H         LINE#         331
  C:6BAFH         LINE#         332
  C:6BBDH         LINE#         333
  C:6BBDH         LINE#         334
  C:6BC5H         LINE#         340
  -------         ENDPROC       H2_SGPIO_ENABLE
  -------         ENDMOD        H2GPIOS

  -------         MODULE        H2TXRXAUX
  C:0000H         SYMBOL        _ICE_DUMMY_
  D:0090H         PUBLIC        P1
  D:00B0H         PUBLIC        P3
  D:00A8H         PUBLIC        IE
  D:00B8H         PUBLIC        IP
  D:0098H         PUBLIC        SCON
  D:0088H         PUBLIC        TCON
  D:00C8H         PUBLIC        T2CON
  D:00D0H         PUBLIC        PSW
  -------         ENDMOD        H2TXRXAUX

  -------         MODULE        H2AGGR
  C:0000H         SYMBOL        _ICE_DUMMY_
  D:0090H         PUBLIC        P1
  D:00B0H         PUBLIC        P3
  D:00A8H         PUBLIC        IE
  D:00B8H         PUBLIC        IP
  D:0098H         PUBLIC        SCON
  D:0088H         PUBLIC        TCON
  D:00C8H         PUBLIC        T2CON
  D:00D0H         PUBLIC        PSW
  -------         ENDMOD        H2AGGR

  -------         MODULE        H2E2ETC
  C:0000H         SYMBOL        _ICE_DUMMY_
  D:0090H         PUBLIC        P1
  D:00B0H         PUBLIC        P3
  D:00A8H         PUBLIC        IE
  D:00B8H         PUBLIC        IP
  D:0098H         PUBLIC        SCON
  D:0088H         PUBLIC        TCON
BL51 BANKED LINKER/LOCATER V6.22.2.0                                                  11/30/2021  16:22:28  PAGE 86


  D:00C8H         PUBLIC        T2CON
  D:00D0H         PUBLIC        PSW
  -------         ENDMOD        H2E2ETC

  -------         MODULE        H2MAILC
  C:0000H         SYMBOL        _ICE_DUMMY_
  D:0090H         PUBLIC        P1
  D:00B0H         PUBLIC        P3
  D:00A8H         PUBLIC        IE
  D:00B8H         PUBLIC        IP
  D:0098H         PUBLIC        SCON
  D:0088H         PUBLIC        TCON
  D:00C8H         PUBLIC        T2CON
  D:00D0H         PUBLIC        PSW
  -------         ENDMOD        H2MAILC

  -------         MODULE        H2TCAM
  C:0000H         SYMBOL        _ICE_DUMMY_
  D:0090H         PUBLIC        P1
  D:00B0H         PUBLIC        P3
  D:00A8H         PUBLIC        IE
  D:00B8H         PUBLIC        IP
  D:0098H         PUBLIC        SCON
  D:0088H         PUBLIC        TCON
  D:00C8H         PUBLIC        T2CON
  D:00D0H         PUBLIC        PSW
  -------         ENDMOD        H2TCAM

  -------         MODULE        TXT
  C:0000H         SYMBOL        _ICE_DUMMY_
  C:8DBAH         PUBLIC        _print_txt_left
  D:0090H         PUBLIC        P1
  C:93B7H         PUBLIC        _txt_len
  D:00B0H         PUBLIC        P3
  D:00A8H         PUBLIC        IE
  D:00B8H         PUBLIC        IP
  C:70C5H         PUBLIC        _cmp_cmd_txt
  D:0098H         PUBLIC        SCON
  D:0088H         PUBLIC        TCON
  D:00C8H         PUBLIC        T2CON
  C:8C5CH         PUBLIC        _print_txt
  D:00D0H         PUBLIC        PSW
  C:91C2H         SYMBOL        Com0013
  C:91C2H         SYMBOL        L?0020
  C:91C3H         SYMBOL        L?0021
  C:91D3H         SYMBOL        L?0022
  -------         PROC          COM0013
  -------         ENDPROC       COM0013
  -------         PROC          _TXT_LEN
  D:0007H         SYMBOL        txt_no
  C:93B7H         LINE#         76
  C:93B7H         LINE#         77
  C:93B7H         LINE#         78
  C:93C3H         LINE#         79
  C:93C9H         LINE#         80
  C:93C9H         LINE#         82
  C:93CBH         LINE#         83
BL51 BANKED LINKER/LOCATER V6.22.2.0                                                  11/30/2021  16:22:28  PAGE 87


  -------         ENDPROC       _TXT_LEN
  -------         PROC          _PRINT_TXT
  X:E2DDH         SYMBOL        txt_no
  C:8C5CH         LINE#         87
  C:8C61H         LINE#         88
  C:8C61H         LINE#         89
  C:8C74H         LINE#         90
  C:8C7AH         LINE#         91
  C:8C7AH         LINE#         92
  C:8C83H         LINE#         93
  C:8C8BH         LINE#         94
  C:8C8EH         LINE#         95
  C:8C8EH         LINE#         96
  -------         ENDPROC       _PRINT_TXT
  -------         PROC          _PRINT_TXT_LEFT
  X:E2DAH         SYMBOL        txt_no
  X:E2DBH         SYMBOL        width
  -------         DO            
  X:E2DCH         SYMBOL        s_len
  -------         ENDDO         
  C:8DBAH         LINE#         98
  C:8DC4H         LINE#         99
  C:8DC4H         LINE#         102
  C:8DCCH         LINE#         103
  C:8DD4H         LINE#         104
  C:8DE2H         LINE#         105
  C:8DE8H         LINE#         106
  C:8DE8H         LINE#         107
  -------         ENDPROC       _PRINT_TXT_LEFT
  -------         PROC          _CMP_CMD_TXT
  X:E2D2H         SYMBOL        cmd_txt_no
  X:E2D3H         SYMBOL        s1
  -------         DO            
  X:E2D5H         SYMBOL        count
  X:E2D6H         SYMBOL        ch1
  X:E2D7H         SYMBOL        ch2
  X:E2D8H         SYMBOL        s2
  X:E2DAH         SYMBOL        prev_ch
  -------         ENDDO         
  C:70C5H         LINE#         112
  C:70D0H         LINE#         113
  C:70D0H         LINE#         120
  C:70D5H         LINE#         121
  C:70D9H         LINE#         122
  C:70F7H         LINE#         123
  C:70F7H         LINE#         124
  C:7108H         LINE#         125
  C:710BH         LINE#         126
  C:710DH         LINE#         127
  C:710DH         LINE#         129
  C:711DH         LINE#         130
  C:7128H         LINE#         131
  C:7143H         LINE#         132
  C:714AH         LINE#         133
  C:7150H         LINE#         134
  C:7150H         LINE#         135
  C:7156H         LINE#         136
BL51 BANKED LINKER/LOCATER V6.22.2.0                                                  11/30/2021  16:22:28  PAGE 88


  C:7156H         LINE#         137
  C:7156H         LINE#         138
  C:7159H         LINE#         139
  C:7159H         LINE#         140
  C:7159H         LINE#         141
  C:7159H         LINE#         142
  C:715EH         LINE#         143
  C:715EH         LINE#         145
  C:716FH         LINE#         146
  C:7171H         LINE#         147
  C:7171H         LINE#         148
  C:7171H         LINE#         149
  -------         ENDPROC       _CMP_CMD_TXT
  -------         ENDMOD        TXT

  -------         MODULE        PRINT
  C:0000H         SYMBOL        _ICE_DUMMY_
  D:0090H         PUBLIC        P1
  D:00B0H         PUBLIC        P3
  C:756BH         SYMBOL        _print_dec_32
  C:87D0H         PUBLIC        _print_parse_info_32
  D:00A8H         PUBLIC        IE
  C:93CCH         PUBLIC        _print_spaces
  C:91FDH         PUBLIC        _print_hex_dw
  D:00B8H         PUBLIC        IP
  C:95F2H         PUBLIC        print_cr_lf
  C:91E0H         PUBLIC        _print_hex_b
  C:9314H         PUBLIC        _print_hex_w
  D:0098H         PUBLIC        SCON
  D:0088H         PUBLIC        TCON
  C:8BF3H         PUBLIC        _print_n_str
  C:921AH         PUBLIC        _print_line
  C:817AH         PUBLIC        _print_dec
  C:9560H         PUBLIC        _print_dec_right
  C:8A9BH         PUBLIC        _print_mac_addr
  C:96B4H         PUBLIC        _println_str
  C:95E8H         PUBLIC        print_hex_prefix
  C:96D6H         PUBLIC        _print_ch
  C:84CEH         PUBLIC        _print_binary_32
  D:00C8H         PUBLIC        T2CON
  C:94E2H         PUBLIC        _print_port_mac_addr
  C:8F74H         PUBLIC        _print_dec_8_right_2
  C:92DFH         PUBLIC        _print_str
  C:800AH         PUBLIC        _print_port_list
  D:00D0H         PUBLIC        PSW
  C:873CH         SYMBOL        Com0046
  C:873CH         SYMBOL        L?0071
  C:873CH         SYMBOL        L?0072
  C:8748H         SYMBOL        L?0073
  C:874BH         SYMBOL        L?0074
  C:8752H         SYMBOL        L?0075
  C:8758H         SYMBOL        L?0076
  C:875FH         SYMBOL        L?0078
  C:8767H         SYMBOL        L?0079
  C:8772H         SYMBOL        L?0080
  C:877DH         SYMBOL        L?0081
  -------         PROC          COM0046
BL51 BANKED LINKER/LOCATER V6.22.2.0                                                  11/30/2021  16:22:28  PAGE 89


  -------         ENDPROC       COM0046
  -------         PROC          _PRINT_STR
  X:E328H         SYMBOL        s
  C:92DFH         LINE#         105
  C:92E5H         LINE#         113
  C:92E5H         LINE#         114
  C:92EEH         LINE#         115
  C:92F7H         LINE#         116
  C:92F9H         LINE#         117
  -------         ENDPROC       _PRINT_STR
  -------         PROC          _PRINT_N_STR
  X:E2E3H         SYMBOL        s
  X:E2E6H         SYMBOL        nchar_width
  C:8BF3H         LINE#         120
  C:8BFEH         LINE#         128
  C:8BFEH         LINE#         129
  C:8C0EH         LINE#         130
  C:8C12H         LINE#         131
  C:8C14H         LINE#         132
  C:8C16H         LINE#         133
  C:8C1FH         LINE#         134
  C:8C1FH         LINE#         135
  C:8C25H         LINE#         136
  C:8C27H         LINE#         137
  -------         ENDPROC       _PRINT_N_STR
  -------         PROC          _PRINTLN_STR
  D:0001H         SYMBOL        s
  C:96B4H         LINE#         140
  C:96B4H         LINE#         148
  C:96B4H         LINE#         149
  C:96B7H         LINE#         150
  -------         ENDPROC       _PRINTLN_STR
  -------         PROC          _PRINT_BINARY_32
  X:E2D3H         SYMBOL        value
  -------         DO            
  X:E2D7H         SYMBOL        idx
  -------         ENDDO         
  C:84CEH         LINE#         156
  C:84D4H         LINE#         157
  C:84D4H         LINE#         160
  C:84E9H         LINE#         161
  C:850CH         LINE#         162
  C:851EH         LINE#         163
  C:8523H         LINE#         164
  C:8523H         LINE#         165
  C:852BH         LINE#         166
  -------         ENDPROC       _PRINT_BINARY_32
  C:8809H         SYMBOL        L?0077
  -------         PROC          _PRINT_PARSE_INFO_32
  X:E2CFH         SYMBOL        reg_val
  C:87D0H         LINE#         174
  C:87D6H         LINE#         175
  C:87D6H         LINE#         177
  C:87DFH         LINE#         178
  C:87E2H         LINE#         179
  C:87EBH         LINE#         180
  C:87EEH         LINE#         183
BL51 BANKED LINKER/LOCATER V6.22.2.0                                                  11/30/2021  16:22:28  PAGE 90


  C:87F1H         LINE#         184
  C:87FAH         LINE#         185
  C:87FAH         LINE#         188
  C:8800H         LINE#         189
  C:8800H         LINE#         192
  C:8806H         LINE#         193
  C:8809H         LINE#         194
  -------         ENDPROC       _PRINT_PARSE_INFO_32
  -------         PROC          _PRINT_HEX_B
  X:E324H         SYMBOL        value
  C:91E0H         LINE#         197
  C:91E5H         LINE#         205
  C:91E5H         LINE#         206
  C:91F0H         LINE#         207
  -------         ENDPROC       _PRINT_HEX_B
  -------         PROC          _PRINT_HEX_W
  X:E322H         SYMBOL        value
  C:9314H         LINE#         211
  C:931CH         LINE#         219
  C:931CH         LINE#         220
  C:9324H         LINE#         221
  -------         ENDPROC       _PRINT_HEX_W
  -------         PROC          _PRINT_HEX_DW
  X:E31EH         SYMBOL        value
  C:91FDH         LINE#         225
  C:9203H         LINE#         233
  C:9203H         LINE#         234
  C:9211H         LINE#         235
  -------         ENDPROC       _PRINT_HEX_DW
  -------         PROC          _PRINT_DEC
  X:E31EH         SYMBOL        value
  -------         DO            
  X:E322H         SYMBOL        buf
  X:E32CH         SYMBOL        no_of_digits
  -------         ENDDO         
  C:817AH         LINE#         240
  C:8180H         LINE#         248
  C:8180H         LINE#         253
  C:8185H         LINE#         254
  C:8191H         LINE#         255
  C:81ACH         LINE#         256
  C:81BBH         LINE#         257
  C:81C1H         LINE#         258
  C:81C3H         LINE#         261
  C:81C9H         LINE#         262
  C:81CEH         LINE#         263
  C:81CEH         LINE#         265
  C:81D6H         LINE#         266
  C:81E7H         LINE#         267
  C:81EDH         LINE#         268
  C:81EFH         LINE#         269
  C:81EFH         LINE#         270
  -------         ENDPROC       _PRINT_DEC
  -------         PROC          _PRINT_DEC_8_RIGHT_2
  X:E2E3H         SYMBOL        value
  C:8F74H         LINE#         274
  C:8F79H         LINE#         282
BL51 BANKED LINKER/LOCATER V6.22.2.0                                                  11/30/2021  16:22:28  PAGE 91


  C:8F79H         LINE#         283
  C:8F82H         LINE#         284
  C:8F8AH         LINE#         285
  C:8F8CH         LINE#         286
  C:8F91H         LINE#         287
  C:8F91H         LINE#         288
  -------         ENDPROC       _PRINT_DEC_8_RIGHT_2
  -------         PROC          _PRINT_DEC_RIGHT
  D:0004H         SYMBOL        value
  C:9560H         LINE#         295
  C:9560H         LINE#         304
  C:9560H         LINE#         305
  -------         ENDPROC       _PRINT_DEC_RIGHT
  -------         PROC          PRINT_HEX_PREFIX
  C:95E8H         LINE#         366
  C:95E8H         LINE#         374
  C:95E8H         LINE#         375
  C:95EDH         LINE#         376
  -------         ENDPROC       PRINT_HEX_PREFIX
  -------         PROC          PRINT_CR_LF
  C:95F2H         LINE#         380
  C:95F2H         LINE#         388
  C:95F2H         LINE#         389
  C:95F7H         LINE#         390
  -------         ENDPROC       PRINT_CR_LF
  -------         PROC          _PRINT_CH
  D:0007H         SYMBOL        ch
  C:96D6H         LINE#         394
  C:96D6H         LINE#         402
  C:96D6H         LINE#         403
  -------         ENDPROC       _PRINT_CH
  -------         PROC          _PRINT_SPACES
  X:E2E5H         SYMBOL        count
  C:93CCH         LINE#         409
  C:93D1H         LINE#         417
  C:93D1H         LINE#         418
  C:93D9H         LINE#         419
  C:93DEH         LINE#         420
  C:93E0H         LINE#         421
  -------         ENDPROC       _PRINT_SPACES
  -------         PROC          _PRINT_MAC_ADDR
  X:E2E5H         SYMBOL        mac_addr
  -------         DO            
  X:E2E8H         SYMBOL        j
  -------         ENDDO         
  C:8A9BH         LINE#         449
  C:8AA1H         LINE#         457
  C:8AA1H         LINE#         460
  C:8AB3H         LINE#         461
  C:8ABCH         LINE#         462
  C:8AC9H         LINE#         463
  C:8ACEH         LINE#         464
  C:8ACEH         LINE#         465
  C:8AD6H         LINE#         466
  -------         ENDPROC       _PRINT_MAC_ADDR
  -------         PROC          _PRINT_PORT_MAC_ADDR
  D:0007H         SYMBOL        port_no
BL51 BANKED LINKER/LOCATER V6.22.2.0                                                  11/30/2021  16:22:28  PAGE 92


  -------         DO            
  X:E2D1H         SYMBOL        mac_addr
  -------         ENDDO         
  C:94E2H         LINE#         470
  C:94E2H         LINE#         479
  C:94E2H         LINE#         482
  C:94EBH         LINE#         483
  -------         ENDPROC       _PRINT_PORT_MAC_ADDR
  -------         PROC          _PRINT_LINE
  X:E2DEH         SYMBOL        width
  C:921AH         LINE#         490
  C:921FH         LINE#         498
  C:921FH         LINE#         499
  C:9229H         LINE#         500
  C:922EH         LINE#         501
  C:9234H         LINE#         502
  C:9236H         LINE#         503
  -------         ENDPROC       _PRINT_LINE
  -------         PROC          _PRINT_DEC_32
  X:E2DAH         SYMBOL        value
  X:E2DEH         SYMBOL        adjust
  X:E2DFH         SYMBOL        fieldwidth
  -------         DO            
  X:E2E0H         SYMBOL        buf
  X:E2EAH         SYMBOL        no_of_digits
  -------         ENDDO         
  C:756BH         LINE#         507
  C:7571H         LINE#         517
  C:7571H         LINE#         521
  C:757EH         LINE#         522
  C:7583H         LINE#         523
  C:7589H         LINE#         524
  C:758BH         LINE#         526
  C:759AH         LINE#         529
  C:759FH         LINE#         530
  C:75ABH         LINE#         531
  C:75C3H         LINE#         532
  C:75D2H         LINE#         533
  C:75D8H         LINE#         534
  C:75DAH         LINE#         536
  C:75E0H         LINE#         537
  C:75E6H         LINE#         538
  C:75ECH         LINE#         539
  C:75ECH         LINE#         541
  C:75F4H         LINE#         542
  C:75FAH         LINE#         543
  C:75FAH         LINE#         545
  C:7602H         LINE#         546
  C:760AH         LINE#         547
  C:760CH         LINE#         548
  -------         ENDPROC       _PRINT_DEC_32
  -------         PROC          _PRINT_PORT_LIST
  X:E2E5H         SYMBOL        port_mask
  -------         DO            
  X:E2E9H         SYMBOL        port_no
  X:E2EAH         SYMBOL        first
  -------         ENDDO         
BL51 BANKED LINKER/LOCATER V6.22.2.0                                                  11/30/2021  16:22:28  PAGE 93


  C:800AH         LINE#         778
  C:8010H         LINE#         779
  C:8010H         LINE#         783
  C:8021H         LINE#         784
  C:802AH         LINE#         785
  C:802AH         LINE#         786
  C:8030H         LINE#         787
  C:8043H         LINE#         788
  C:804EH         LINE#         789
  C:8054H         LINE#         790
  C:8059H         LINE#         791
  C:8059H         LINE#         792
  C:8061H         LINE#         793
  C:8066H         LINE#         794
  C:8068H         LINE#         795
  C:8077H         LINE#         796
  C:8077H         LINE#         797
  C:807CH         LINE#         798
  C:807CH         LINE#         799
  C:8084H         LINE#         800
  C:8084H         LINE#         801
  -------         ENDPROC       _PRINT_PORT_LIST
  -------         ENDMOD        PRINT

  -------         MODULE        CLIHND
  C:0000H         SYMBOL        _ICE_DUMMY_
  D:0090H         PUBLIC        P1
  D:00B0H         PUBLIC        P3
  B:00A8H.7       PUBLIC        EA
  C:7F0EH         SYMBOL        handle_sys_config
  D:00A8H         PUBLIC        IE
  C:68CEH         SYMBOL        _cmd_retrieve_mac_addr
  C:6BD2H         SYMBOL        cli_show_help_msg
  C:5B69H         SYMBOL        cli_show_port_info
  D:00B8H         PUBLIC        IP
  C:956DH         SYMBOL        skip_spaces
  I:007BH         SYMBOL        parms
  C:7914H         SYMBOL        _print_phy_model_2_txt
  C:7B5AH         SYMBOL        retrieve_str_parms
  C:60BDH         PUBLIC        cmd_ready
  C:3BB1H         SYMBOL        handle_command
  D:0098H         PUBLIC        SCON
  D:0088H         PUBLIC        TCON
  C:95FCH         SYMBOL        cli_backspace
  C:9505H         SYMBOL        _cli_csi_prefix
  X:E3ABH         SYMBOL        cmd_buf
  X:E3DBH         SYMBOL        cmd_len
  C:72CBH         SYMBOL        cli_show_sw_ver
  C:4CFAH         SYMBOL        _port_info_format_output
  X:E3DCH         SYMBOL        str_parms
  X:E3ECH         SYMBOL        parms_no
  D:00C8H         PUBLIC        T2CON
  X:E3EDH         SYMBOL        cmd_ptr
  C:8407H         PUBLIC        cli_tsk
  C:5FC2H         SYMBOL        _cli_show_mac_addr
  C:5658H         SYMBOL        retrieve_parms
  D:00D0H         PUBLIC        PSW
BL51 BANKED LINKER/LOCATER V6.22.2.0                                                  11/30/2021  16:22:28  PAGE 94


  C:6E00H         SYMBOL        Com00E3
  C:6E00H         SYMBOL        L?0228
  C:6E00H         SYMBOL        L?0229
  C:6E0CH         SYMBOL        L?0235
  C:6E0DH         SYMBOL        L?0236
  C:6E10H         SYMBOL        L?0237
  C:6E11H         SYMBOL        L?0238
  C:6E17H         SYMBOL        L?0240
  C:6E18H         SYMBOL        L?0241
  C:6E19H         SYMBOL        L?0242
  C:6E25H         SYMBOL        L?0243
  C:6E36H         SYMBOL        L?0244
  C:6E44H         SYMBOL        L?0245
  C:6E44H         SYMBOL        L?0246
  C:6E50H         SYMBOL        L?0249
  C:6E50H         SYMBOL        L?0250
  C:6E54H         SYMBOL        L?0251
  C:6E5CH         SYMBOL        L?0252
  C:6E71H         SYMBOL        L?0254
  C:6E7BH         SYMBOL        L?0255
  C:6E83H         SYMBOL        L?0258
  C:6E83H         SYMBOL        L?0259
  C:6E85H         SYMBOL        L?0260
  C:6E8DH         SYMBOL        L?0261
  C:6E8DH         SYMBOL        L?0262
  C:6E90H         SYMBOL        L?0263
  C:6E96H         SYMBOL        L?0264
  C:6E98H         SYMBOL        L?0265
  C:6E9FH         SYMBOL        L?0267
  C:6E9FH         SYMBOL        L?0268
  C:6EA7H         SYMBOL        L?0271
  C:6EA7H         SYMBOL        L?0272
  C:6EADH         SYMBOL        L?0273
  C:6EADH         SYMBOL        L?0274
  -------         PROC          COM00E3
  -------         ENDPROC       COM00E3
  -------         PROC          CLI_TSK
  -------         DO            
  X:E2CAH         SYMBOL        error_status
  -------         ENDDO         
  C:8407H         LINE#         226
  C:8407H         LINE#         234
  C:8407H         LINE#         237
  C:840CH         LINE#         238
  C:8416H         LINE#         239
  C:8419H         LINE#         299
  C:8429H         LINE#         300
  C:8433H         LINE#         301
  C:843BH         LINE#         302
  C:843DH         LINE#         306
  C:844FH         LINE#         308
  C:8454H         LINE#         309
  C:8457H         LINE#         310
  C:8459H         LINE#         312
  C:8462H         LINE#         313
  C:8462H         LINE#         315
  C:8467H         LINE#         316
BL51 BANKED LINKER/LOCATER V6.22.2.0                                                  11/30/2021  16:22:28  PAGE 95


  C:846CH         LINE#         317
  C:846CH         LINE#         318
  -------         ENDPROC       CLI_TSK
  -------         PROC          _CLI_CSI_PREFIX
  D:002EH         SYMBOL        ctrl_key
  C:9505H         LINE#         320
  C:9507H         LINE#         322
  C:950CH         LINE#         323
  C:9511H         LINE#         324
  -------         ENDPROC       _CLI_CSI_PREFIX
  -------         PROC          CLI_BACKSPACE
  C:95FCH         LINE#         327
  C:95FCH         LINE#         329
  C:9601H         LINE#         330
  -------         ENDPROC       CLI_BACKSPACE
  -------         PROC          CMD_READY
  -------         DO            
  X:E2CBH         SYMBOL        ch
  -------         ENDDO         
  C:60BDH         LINE#         334
  C:60BDH         LINE#         343
  C:60BDH         LINE#         346
  C:60C5H         LINE#         347
  C:60CDH         LINE#         349
  C:60D4H         LINE#         350
  C:60D9H         LINE#         351
  C:60E9H         LINE#         352
  C:60ECH         LINE#         353
  C:60EFH         LINE#         354
  C:60EFH         LINE#         355
  C:60F2H         LINE#         356
  C:60FAH         LINE#         357
  C:60FFH         LINE#         358
  C:60FFH         LINE#         359
  C:610CH         LINE#         360
  C:6114H         LINE#         361
  C:6124H         LINE#         362
  C:6144H         LINE#         363
  C:6152H         LINE#         364
  C:615AH         LINE#         365
  C:615AH         LINE#         366
  C:6162H         LINE#         368
  C:616AH         LINE#         369
  C:6170H         LINE#         370
  C:6170H         LINE#         371
  C:617AH         LINE#         372
  C:617DH         LINE#         373
  C:6182H         LINE#         374
  C:6187H         LINE#         375
  C:6189H         LINE#         376
  C:61ACH         LINE#         377
  C:61B1H         LINE#         378
  C:61B4H         LINE#         379
  C:61B4H         LINE#         380
  C:61B4H         LINE#         381
  C:61B4H         LINE#         382
  C:61B4H         LINE#         384
BL51 BANKED LINKER/LOCATER V6.22.2.0                                                  11/30/2021  16:22:28  PAGE 96


  C:61B5H         LINE#         385
  -------         ENDPROC       CMD_READY
  C:6C67H         SYMBOL        L?0225
  C:6C6FH         SYMBOL        L?0231
  C:6C77H         SYMBOL        L?0239
  C:6C7FH         SYMBOL        L?0253
  C:6C87H         SYMBOL        L?0270
  -------         PROC          CLI_SHOW_HELP_MSG
  C:6BD2H         LINE#         436
  C:6BD2H         LINE#         437
  C:6BD2H         LINE#         438
  C:6BD6H         LINE#         439
  C:6BE0H         LINE#         440
  C:6BE4H         LINE#         441
  C:6BEEH         LINE#         442
  C:6BF2H         LINE#         456
  C:6BFCH         LINE#         457
  C:6C00H         LINE#         458
  C:6C0AH         LINE#         459
  C:6C0EH         LINE#         460
  C:6C18H         LINE#         461
  C:6C1CH         LINE#         462
  C:6C26H         LINE#         466
  C:6C2AH         LINE#         476
  C:6C34H         LINE#         484
  C:6C38H         LINE#         502
  C:6C42H         LINE#         503
  C:6C46H         LINE#         524
  C:6C50H         LINE#         533
  C:6C54H         LINE#         542
  C:6C5EH         LINE#         543
  C:6C67H         LINE#         548
  -------         ENDPROC       CLI_SHOW_HELP_MSG
  C:3E0CH         SYMBOL        L?0226
  C:3E1AH         SYMBOL        L?0232
  C:3E23H         SYMBOL        L?0233
  C:3E2CH         SYMBOL        L?0248
  C:3E35H         SYMBOL        L?0256
  C:3E3EH         SYMBOL        L?0269
  -------         PROC          HANDLE_COMMAND
  -------         DO            
  X:E2CBH         SYMBOL        cmd
  -------         DO            
  X:E2CCH         SYMBOL        iport_idx
  X:E2CDH         SYMBOL        chip_port
  X:E2CEH         SYMBOL        drop_enable
  -------         ENDDO         
  -------         ENDDO         
  C:3BB1H         LINE#         551
  C:3BB1H         LINE#         561
  C:3BB1H         LINE#         592
  C:3BB8H         LINE#         593
  C:3BBBH         LINE#         595
  C:3BC1H         LINE#         596
  C:3BC4H         LINE#         597
  C:3BC4H         LINE#         599
  C:3BFEH         LINE#         600
BL51 BANKED LINKER/LOCATER V6.22.2.0                                                  11/30/2021  16:22:28  PAGE 97


  C:3BFEH         LINE#         601
  C:3C01H         LINE#         602
  C:3C04H         LINE#         605
  C:3C04H         LINE#         606
  C:3C07H         LINE#         607
  C:3C0AH         LINE#         610
  C:3C0AH         LINE#         611
  C:3C0FH         LINE#         612
  C:3C21H         LINE#         613
  C:3C21H         LINE#         617
  C:3C21H         LINE#         619
  C:3C31H         LINE#         620
  C:3C40H         LINE#         621
  C:3C48H         LINE#         622
  C:3C48H         LINE#         623
  C:3C4BH         LINE#         626
  C:3C4BH         LINE#         628
  C:3C50H         LINE#         630
  C:3C5CH         LINE#         631
  C:3C70H         LINE#         632
  C:3C78H         LINE#         633
  C:3C82H         LINE#         634
  C:3C96H         LINE#         635
  C:3C96H         LINE#         639
  C:3C96H         LINE#         641
  C:3C99H         LINE#         642
  C:3CA6H         LINE#         644
  C:3CB0H         LINE#         645
  C:3CC0H         LINE#         646
  C:3CCBH         LINE#         652
  C:3CD5H         LINE#         653
  C:3CE5H         LINE#         654
  C:3CE5H         LINE#         656
  C:3CE8H         LINE#         657
  C:3CEBH         LINE#         667
  C:3CEBH         LINE#         668
  C:3CF9H         LINE#         669
  C:3D13H         LINE#         670
  C:3D16H         LINE#         671
  C:3D1CH         LINE#         672
  C:3D1CH         LINE#         673
  C:3D1FH         LINE#         676
  C:3D1FH         LINE#         677
  C:3D22H         LINE#         678
  C:3D25H         LINE#         783
  C:3D25H         LINE#         784
  C:3D3CH         LINE#         785
  C:3D42H         LINE#         786
  C:3D45H         LINE#         1076
  C:3D45H         LINE#         1079
  C:3D5EH         LINE#         1081
  C:3D6FH         LINE#         1082
  C:3D7AH         LINE#         1083
  C:3D80H         LINE#         1085
  C:3D91H         LINE#         1086
  C:3D91H         LINE#         1087
  C:3D99H         LINE#         1088
BL51 BANKED LINKER/LOCATER V6.22.2.0                                                  11/30/2021  16:22:28  PAGE 98


  C:3D99H         LINE#         1089
  C:3D99H         LINE#         1134
  C:3D99H         LINE#         1135
  C:3DA1H         LINE#         1136
  C:3DB5H         LINE#         1137
  C:3DC6H         LINE#         1138
  C:3DDAH         LINE#         1139
  C:3DDCH         LINE#         1140
  C:3DDFH         LINE#         1141
  C:3DDFH         LINE#         1142
  C:3DDFH         LINE#         1143
  C:3DDFH         LINE#         1144
  C:3DE5H         LINE#         1145
  C:3DE7H         LINE#         1262
  C:3DE7H         LINE#         1263
  C:3DEAH         LINE#         1264
  C:3DECH         LINE#         1327
  C:3DECH         LINE#         1328
  C:3DF8H         LINE#         1329
  C:3DF8H         LINE#         1331
  C:3DFAH         LINE#         1332
  C:3DFCH         LINE#         1333
  C:3DFCH         LINE#         1335
  C:3E01H         LINE#         1336
  C:3E03H         LINE#         1338
  C:3E03H         LINE#         1339
  C:3E06H         LINE#         1340
  C:3E06H         LINE#         1341
  C:3E06H         LINE#         1352
  C:3E06H         LINE#         1353
  C:3E09H         LINE#         1354
  C:3E09H         LINE#         1355
  C:3E0BH         LINE#         1356
  -------         ENDPROC       HANDLE_COMMAND
  -------         PROC          RETRIEVE_PARMS
  -------         DO            
  X:E2CFH         SYMBOL        ch
  X:E2D0H         SYMBOL        base
  X:E2D1H         SYMBOL        j
  X:E2D2H         SYMBOL        no_of_digits
  X:E2D3H         SYMBOL        digits
  X:E2DDH         SYMBOL        parm_bin
  -------         ENDDO         
  C:5658H         LINE#         1359
  C:5658H         LINE#         1372
  C:5658H         LINE#         1380
  C:5660H         LINE#         1381
  C:5669H         LINE#         1382
  C:566CH         LINE#         1383
  C:566CH         LINE#         1386
  C:5671H         LINE#         1388
  C:567EH         LINE#         1393
  C:567EH         LINE#         1395
  C:5681H         LINE#         1396
  C:5687H         LINE#         1397
  C:568CH         LINE#         1402
  C:569DH         LINE#         1403
BL51 BANKED LINKER/LOCATER V6.22.2.0                                                  11/30/2021  16:22:28  PAGE 99


  C:56A3H         LINE#         1404
  C:56ADH         LINE#         1405
  C:56B4H         LINE#         1406
  C:56B7H         LINE#         1407
  C:56B7H         LINE#         1408
  C:56B7H         LINE#         1414
  C:56B7H         LINE#         1416
  C:56BFH         LINE#         1418
  C:56CBH         LINE#         1420
  C:56D8H         LINE#         1421
  C:56E2H         LINE#         1422
  C:56F4H         LINE#         1423
  C:572AH         LINE#         1424
  C:5732H         LINE#         1425
  C:5737H         LINE#         1426
  C:574FH         LINE#         1427
  C:574FH         LINE#         1428
  C:574FH         LINE#         1430
  C:575AH         LINE#         1431
  C:575CH         LINE#         1432
  C:575CH         LINE#         1433
  C:575CH         LINE#         1434
  C:575CH         LINE#         1436
  C:5769H         LINE#         1437
  C:576CH         LINE#         1438
  C:5779H         LINE#         1439
  C:5791H         LINE#         1440
  C:579BH         LINE#         1441
  C:57A1H         LINE#         1442
  C:57A1H         LINE#         1443
  C:57A1H         LINE#         1444
  C:57A3H         LINE#         1445
  C:57A6H         LINE#         1446
  C:57A6H         LINE#         1447
  C:57A6H         LINE#         1448
  C:57A9H         LINE#         1449
  -------         ENDPROC       RETRIEVE_PARMS
  -------         PROC          RETRIEVE_STR_PARMS
  -------         DO            
  D:0007H         SYMBOL        ch
  D:0007H         SYMBOL        j
  -------         ENDDO         
  C:7B5AH         LINE#         1455
  C:7B5AH         LINE#         1468
  C:7B5AH         LINE#         1472
  C:7B5FH         LINE#         1473
  C:7B68H         LINE#         1474
  C:7B6BH         LINE#         1475
  C:7B6BH         LINE#         1477
  C:7B70H         LINE#         1478
  C:7B76H         LINE#         1479
  C:7B79H         LINE#         1480
  C:7B8AH         LINE#         1481
  C:7B8FH         LINE#         1482
  C:7B8FH         LINE#         1483
  C:7B98H         LINE#         1484
  C:7B99H         LINE#         1485
BL51 BANKED LINKER/LOCATER V6.22.2.0                                                  11/30/2021  16:22:28  PAGE 100


  C:7BA5H         LINE#         1486
  C:7BB0H         LINE#         1487
  C:7BB5H         LINE#         1488
  C:7BB8H         LINE#         1489
  C:7BBBH         LINE#         1490
  C:7BBBH         LINE#         1491
  C:7BBFH         LINE#         1492
  C:7BC4H         LINE#         1493
  C:7BCAH         LINE#         1494
  C:7BCCH         LINE#         1495
  C:7BCCH         LINE#         1496
  C:7BD5H         LINE#         1497
  C:7BD8H         LINE#         1498
  C:7BDBH         LINE#         1499
  C:7BE4H         LINE#         1500
  C:7BE6H         LINE#         1501
  -------         ENDPROC       RETRIEVE_STR_PARMS
  -------         PROC          _CMD_RETRIEVE_MAC_ADDR
  D:0001H         SYMBOL        mac_addr_str
  X:E2D5H         SYMBOL        mac_addr
  -------         DO            
  X:E2D8H         SYMBOL        j
  X:E2D9H         SYMBOL        k
  X:E2DAH         SYMBOL        ch
  X:E2DBH         SYMBOL        ptr
  -------         ENDDO         
  C:68CEH         LINE#         1512
  C:68CEH         LINE#         1523
  C:68CEH         LINE#         1527
  C:68D4H         LINE#         1529
  C:68E9H         LINE#         1530
  C:68F9H         LINE#         1531
  C:6901H         LINE#         1532
  C:690BH         LINE#         1534
  C:6913H         LINE#         1535
  C:6916H         LINE#         1536
  C:6919H         LINE#         1537
  C:6919H         LINE#         1539
  C:693DH         LINE#         1540
  C:6945H         LINE#         1542
  C:694FH         LINE#         1543
  C:6957H         LINE#         1544
  C:695EH         LINE#         1545
  C:6967H         LINE#         1546
  C:697AH         LINE#         1547
  C:697DH         LINE#         1548
  C:697DH         LINE#         1549
  C:697DH         LINE#         1550
  C:697DH         LINE#         1551
  C:6986H         LINE#         1552
  C:698BH         LINE#         1553
  C:698EH         LINE#         1554
  C:698EH         LINE#         1556
  C:6990H         LINE#         1557
  -------         ENDPROC       _CMD_RETRIEVE_MAC_ADDR
  -------         PROC          SKIP_SPACES
  C:956DH         LINE#         1561
BL51 BANKED LINKER/LOCATER V6.22.2.0                                                  11/30/2021  16:22:28  PAGE 101


  C:956DH         LINE#         1569
  C:956DH         LINE#         1570
  C:9574H         LINE#         1571
  C:9577H         LINE#         1572
  C:9579H         LINE#         1573
  -------         ENDPROC       SKIP_SPACES
  -------         PROC          HANDLE_SYS_CONFIG
  -------         DO            
  X:E2CBH         SYMBOL        ret
  X:E2CCH         SYMBOL        mac_addr
  -------         ENDDO         
  C:7F0EH         LINE#         1859
  C:7F0EH         LINE#         1860
  C:7F0EH         LINE#         1867
  C:7F16H         LINE#         1868
  C:7F18H         LINE#         1869
  C:7F1BH         LINE#         1870
  C:7F1BH         LINE#         1872
  C:7F21H         LINE#         1874
  C:7F28H         LINE#         1875
  C:7F31H         LINE#         1876
  C:7F34H         LINE#         1877
  C:7F36H         LINE#         1878
  C:7F48H         LINE#         1880
  C:7F62H         LINE#         1881
  C:7F64H         LINE#         1882
  C:7F67H         LINE#         1883
  C:7F67H         LINE#         1884
  C:7F80H         LINE#         1886
  C:7F83H         LINE#         1888
  C:7F8AH         LINE#         1909
  C:7F8AH         LINE#         1910
  C:7F8AH         LINE#         1911
  C:7F8CH         LINE#         1912
  -------         ENDPROC       HANDLE_SYS_CONFIG
  -------         PROC          _PRINT_PHY_MODEL_2_TXT
  D:0007H         SYMBOL        model
  C:7914H         LINE#         1948
  C:7914H         LINE#         1949
  C:7914H         LINE#         1950
  C:794CH         LINE#         1951
  C:794CH         LINE#         1952
  C:794CH         LINE#         1953
  C:7952H         LINE#         1954
  C:7954H         LINE#         1955
  C:7954H         LINE#         1956
  C:7954H         LINE#         1957
  C:7954H         LINE#         1958
  C:795AH         LINE#         1959
  C:795CH         LINE#         1960
  C:795CH         LINE#         1961
  C:795CH         LINE#         1962
  C:795CH         LINE#         1963
  C:7962H         LINE#         1964
  C:7964H         LINE#         1965
  C:7964H         LINE#         1966
  C:796AH         LINE#         1967
BL51 BANKED LINKER/LOCATER V6.22.2.0                                                  11/30/2021  16:22:28  PAGE 102


  C:796CH         LINE#         1968
  C:796CH         LINE#         1969
  C:7972H         LINE#         1970
  C:7974H         LINE#         1971
  C:7974H         LINE#         1972
  C:797AH         LINE#         1973
  C:797CH         LINE#         1974
  C:797CH         LINE#         1975
  C:797CH         LINE#         1976
  C:7982H         LINE#         1977
  C:7984H         LINE#         1978
  C:7984H         LINE#         1979
  C:798AH         LINE#         1980
  C:798CH         LINE#         1981
  C:798CH         LINE#         1982
  C:7992H         LINE#         1983
  C:7994H         LINE#         1984
  C:7994H         LINE#         1985
  C:799FH         LINE#         1986
  C:799FH         LINE#         1987
  C:799FH         LINE#         1988
  C:79AAH         LINE#         1989
  C:79AAH         LINE#         1990
  C:79AAH         LINE#         1991
  -------         ENDPROC       _PRINT_PHY_MODEL_2_TXT
  C:4E8AH         SYMBOL        L?0230
  C:4E9AH         SYMBOL        L?0234
  -------         PROC          _PORT_INFO_FORMAT_OUTPUT
  X:E2DEH         SYMBOL        fdata
  -------         DO            
  X:E2E1H         SYMBOL        link_mode
  X:E2E2H         SYMBOL        speed
  -------         ENDDO         
  C:4CFAH         LINE#         1992
  C:4D00H         LINE#         1993
  C:4D00H         LINE#         1994
  C:4D0AH         LINE#         1996
  C:4D0FH         LINE#         1997
  C:4D15H         LINE#         1998
  C:4D15H         LINE#         1999
  C:4D1EH         LINE#         2000
  C:4D1EH         LINE#         2001
  C:4D2BH         LINE#         2002
  C:4D30H         LINE#         2003
  C:4D37H         LINE#         2004
  C:4D3CH         LINE#         2005
  C:4D3FH         LINE#         2006
  C:4D4CH         LINE#         2007
  C:4D4CH         LINE#         2008
  C:4D5BH         LINE#         2011
  C:4D68H         LINE#         2012
  C:4D68H         LINE#         2015
  C:4D85H         LINE#         2016
  C:4D8BH         LINE#         2017
  C:4D8BH         LINE#         2019
  C:4D8DH         LINE#         2021
  C:4D94H         LINE#         2022
BL51 BANKED LINKER/LOCATER V6.22.2.0                                                  11/30/2021  16:22:28  PAGE 103


  C:4D9AH         LINE#         2023
  C:4DA3H         LINE#         2024
  C:4DA9H         LINE#         2025
  C:4DB2H         LINE#         2026
  C:4DB8H         LINE#         2027
  C:4DC3H         LINE#         2028
  C:4DC7H         LINE#         2029
  C:4DC9H         LINE#         2030
  C:4DD2H         LINE#         2031
  C:4DD2H         LINE#         2032
  C:4DD7H         LINE#         2035
  C:4DE2H         LINE#         2036
  C:4DE2H         LINE#         2037
  C:4DE7H         LINE#         2040
  C:4DEEH         LINE#         2041
  C:4DF4H         LINE#         2042
  C:4DF7H         LINE#         2043
  C:4E00H         LINE#         2044
  C:4E08H         LINE#         2045
  C:4E0AH         LINE#         2046
  C:4E10H         LINE#         2047
  C:4E1AH         LINE#         2048
  C:4E20H         LINE#         2049
  C:4E2AH         LINE#         2050
  C:4E30H         LINE#         2051
  C:4E3CH         LINE#         2052
  C:4E40H         LINE#         2053
  C:4E42H         LINE#         2054
  C:4E49H         LINE#         2055
  C:4E49H         LINE#         2056
  C:4E52H         LINE#         2057
  C:4E56H         LINE#         2058
  C:4E58H         LINE#         2059
  C:4E5FH         LINE#         2060
  C:4E5FH         LINE#         2063
  C:4E64H         LINE#         2064
  C:4E6DH         LINE#         2065
  C:4E87H         LINE#         2066
  C:4E87H         LINE#         2067
  C:4E8AH         LINE#         2068
  -------         ENDPROC       _PORT_INFO_FORMAT_OUTPUT
  C:5C7BH         SYMBOL        L?0247
  C:5C88H         SYMBOL        L?0266
  -------         PROC          CLI_SHOW_PORT_INFO
  -------         DO            
  X:E2CFH         SYMBOL        phy_id
  X:E2D3H         SYMBOL        uport_idx
  X:E2D4H         SYMBOL        iport
  X:E2D5H         SYMBOL        chip_port
  X:E2D6H         SYMBOL        fdata
  D:0004H         SYMBOL        reg_val
  -------         ENDDO         
  C:5B69H         LINE#         2070
  C:5B69H         LINE#         2071
  C:5B69H         LINE#         2073
  C:5B6EH         LINE#         2074
  C:5B70H         LINE#         2075
BL51 BANKED LINKER/LOCATER V6.22.2.0                                                  11/30/2021  16:22:28  PAGE 104


  C:5B72H         LINE#         2079
  C:5B76H         LINE#         2080
  C:5B76H         LINE#         2081
  C:5B7DH         LINE#         2082
  C:5B7DH         LINE#         2083
  C:5B84H         LINE#         2084
  C:5B84H         LINE#         2085
  C:5B8EH         LINE#         2086
  C:5B93H         LINE#         2087
  C:5B9CH         LINE#         2088
  C:5BA1H         LINE#         2089
  C:5BAAH         LINE#         2090
  C:5BAFH         LINE#         2092
  C:5BB3H         LINE#         2093
  C:5BB3H         LINE#         2095
  C:5BBDH         LINE#         2096
  C:5BC2H         LINE#         2097
  C:5BC5H         LINE#         2099
  C:5BD7H         LINE#         2100
  C:5BDBH         LINE#         2101
  C:5BE5H         LINE#         2102
  C:5BEEH         LINE#         2103
  C:5BF6H         LINE#         2104
  C:5BFDH         LINE#         2105
  C:5C04H         LINE#         2106
  C:5C0BH         LINE#         2107
  C:5C16H         LINE#         2108
  C:5C1DH         LINE#         2109
  C:5C28H         LINE#         2110
  C:5C4DH         LINE#         2111
  C:5C68H         LINE#         2112
  C:5C71H         LINE#         2113
  C:5C7AH         LINE#         2114
  -------         ENDPROC       CLI_SHOW_PORT_INFO
  -------         PROC          _CLI_SHOW_MAC_ADDR
  X:E2CFH         SYMBOL        chip_port
  -------         DO            
  X:E2D0H         SYMBOL        mac_tab_entry
  X:E2DCH         SYMBOL        is_ipmc_entry
  X:E2DDH         SYMBOL        status
  X:E2E1H         SYMBOL        total_cnt
  -------         ENDDO         
  C:5FC2H         LINE#         2121
  C:5FC7H         LINE#         2122
  C:5FC7H         LINE#         2125
  C:5FD1H         LINE#         2127
  C:5FD8H         LINE#         2128
  C:5FF0H         LINE#         2130
  C:5FF0H         LINE#         2131
  C:6003H         LINE#         2132
  C:6018H         LINE#         2133
  C:6018H         LINE#         2134
  C:6018H         LINE#         2136
  C:602BH         LINE#         2137
  C:602BH         LINE#         2138
  C:602BH         LINE#         2140
  C:6044H         LINE#         2143
BL51 BANKED LINKER/LOCATER V6.22.2.0                                                  11/30/2021  16:22:28  PAGE 105


  C:604DH         LINE#         2144
  C:6052H         LINE#         2151
  C:6077H         LINE#         2152
  C:607CH         LINE#         2155
  C:6091H         LINE#         2156
  C:6096H         LINE#         2163
  C:609FH         LINE#         2164
  C:60A2H         LINE#         2165
  C:60A5H         LINE#         2168
  C:60A8H         LINE#         2169
  C:60B1H         LINE#         2170
  C:60BAH         LINE#         2171
  -------         ENDPROC       _CLI_SHOW_MAC_ADDR
  C:7368H         SYMBOL        L?0257
  -------         PROC          CLI_SHOW_SW_VER
  -------         DO            
  X:E2CFH         SYMBOL        chip_port
  X:E2D0H         SYMBOL        port_ext
  -------         ENDDO         
  C:72CBH         LINE#         2176
  C:72CBH         LINE#         2184
  C:72CBH         LINE#         2195
  C:72CEH         LINE#         2198
  C:72D1H         LINE#         2201
  C:72D4H         LINE#         2204
  C:72D7H         LINE#         2207
  C:72E0H         LINE#         2208
  C:72E5H         LINE#         2209
  C:72F0H         LINE#         2210
  C:72F3H         LINE#         2220
  C:72F6H         LINE#         2221
  C:72FFH         LINE#         2222
  C:7308H         LINE#         2223
  C:7319H         LINE#         2224
  C:7321H         LINE#         2225
  C:7331H         LINE#         2229
  C:7331H         LINE#         2230
  C:7331H         LINE#         2231
  C:7331H         LINE#         2232
  C:7336H         LINE#         2233
  C:733BH         LINE#         2234
  C:733BH         LINE#         2237
  C:7341H         LINE#         2238
  C:7346H         LINE#         2241
  C:734BH         LINE#         2242
  C:7353H         LINE#         2243
  C:7353H         LINE#         2244
  C:735CH         LINE#         2245
  C:735FH         LINE#         2246
  C:7367H         LINE#         2249
  -------         ENDPROC       CLI_SHOW_SW_VER
  -------         ENDMOD        CLIHND

  -------         MODULE        TXT_MOREDEF
  C:0000H         SYMBOL        _ICE_DUMMY_
  X:E000H         PUBLIC        txt_TXT_NO_TX_PREFIX
  D:0090H         PUBLIC        P1
BL51 BANKED LINKER/LOCATER V6.22.2.0                                                  11/30/2021  16:22:28  PAGE 106


  D:00B0H         PUBLIC        P3
  X:E004H         PUBLIC        txt_CMD_TXT_NO_SAVE
  X:E009H         PUBLIC        txt_TXT_NO_MAC_CTRL
  D:00A8H         PUBLIC        IE
  X:E013H         PUBLIC        txt_CMD_TXT_NO_CONFIG
  X:E01AH         PUBLIC        cmd_txt_tab
  X:E02AH         PUBLIC        txt_TXT_NO_BC_PACKETS
  D:00B8H         PUBLIC        IP
  X:E035H         PUBLIC        txt_TXT_NO_OVERFLOW
  X:E03FH         PUBLIC        txt_TXT_NO_OVERSIZE
  X:E049H         PUBLIC        txt_TXT_NO_JABBERS
  X:E052H         PUBLIC        txt_TXT_NO_BM_PACKETS
  X:E067H         PUBLIC        txt_TXT_NO_SWITCH_DESCRIPTION
  X:E089H         PUBLIC        txt_TXT_NO_MC_PACKETS
  X:E094H         PUBLIC        txt_TXT_NO_PAUSE
  X:E09BH         PUBLIC        txt_TXT_NO_HI_PACKETS
  X:E0B2H         PUBLIC        txt_TXT_NO_512_BYTES
  X:E0C2H         PUBLIC        txt_TXT_NO_WRONG_CHIP_ID
  X:E0D0H         PUBLIC        txt_TXT_NO_COLLISIONS
  X:E0DCH         PUBLIC        txt_TXT_NO_128_BYTES
  X:E0EBH         PUBLIC        std_txt_tab
  X:E15DH         PUBLIC        txt_TXT_NO_256_BYTES
  X:E16CH         PUBLIC        txt_CMD_TXT_NO_MAC
  X:E170H         PUBLIC        txt_TXT_NO_DROPS
  X:E177H         PUBLIC        txt_TXT_NO_LO_PACKETS
  X:E18DH         PUBLIC        txt_TXT_NO_COMPILE_DATE
  X:E19CH         PUBLIC        txt_CMD_TXT_NO_END
  X:E1A0H         PUBLIC        txt_TXT_NO_PACKETS
  X:E1A9H         PUBLIC        txt_TXT_NO_RX_TOTAL
  X:E1B7H         PUBLIC        txt_TXT_NO_AGED
  D:0098H         PUBLIC        SCON
  X:E1BDH         PUBLIC        txt_TXT_NO_TX_TOTAL
  D:0088H         PUBLIC        TCON
  X:E1CCH         PUBLIC        txt_TXT_NO_RX_ERROR
  X:E1E3H         PUBLIC        txt_TXT_NO_TX_ERROR
  X:E1FBH         PUBLIC        txt_TXT_NO_DASH
  X:E1FDH         PUBLIC        txt_TXT_NO_CRC_ALIGN
  X:E20CH         PUBLIC        txt_TXT_NO_CHIP_NAME
  X:E213H         PUBLIC        txt_TXT_NO_FRAGMENTS
  X:E21EH         PUBLIC        txt_TXT_NO_1024_BYTES
  X:E22BH         PUBLIC        txt_TXT_NO_UNDERSIZE
  X:E236H         PUBLIC        txt_TXT_NO_CAT_DROPS
  D:00C8H         PUBLIC        T2CON
  X:E248H         PUBLIC        txt_TXT_NO_RX_SIZE
  X:E25EH         PUBLIC        txt_TXT_NO_TX_SIZE
  X:E275H         PUBLIC        txt_TXT_NO_TEMPERATURE
  X:E281H         PUBLIC        txt_TXT_NO_64_BYTES
  X:E28BH         PUBLIC        txt_TXT_NO_65_BYTES
  X:E299H         PUBLIC        txt_TXT_NO_OCTETS
  X:E2A1H         PUBLIC        txt_TXT_NO_SWITCH_NAME
  X:E2B7H         PUBLIC        txt_TXT_NO_ERR_PACKETS
  D:00D0H         PUBLIC        PSW
  X:E2C5H         PUBLIC        txt_TXT_NO_RX_PREFIX
  -------         ENDMOD        TXT_MOREDEF

  -------         MODULE        PHYTSK
  C:0000H         SYMBOL        _ICE_DUMMY_
BL51 BANKED LINKER/LOCATER V6.22.2.0                                                  11/30/2021  16:22:28  PAGE 107


  C:8C8FH         SYMBOL        _do_link_down
  D:0090H         PUBLIC        P1
  X:E42FH         SYMBOL        port_lm
  X:E43AH         SYMBOL        phy_enabled
  C:9636H         PUBLIC        _port_link_mode_get
  D:00B0H         PUBLIC        P3
  B:00A8H.7       PUBLIC        EA
  X:E43EH         SYMBOL        port_state_machine
  C:885AH         PUBLIC        phy_tsk
  C:83A0H         SYMBOL        _phy_link_mode_get
  D:00A8H         PUBLIC        IE
  X:E449H         SYMBOL        mac_if_changed
  C:9544H         PUBLIC        _is_port_link
  C:96BAH         PUBLIC        _phy_flowcontrol_get
  C:9435H         PUBLIC        phy_timer_10
  D:00B8H         PUBLIC        IP
  C:8100H         PUBLIC        phy_tsk_init
  C:4B0FH         SYMBOL        _handle_phy
  C:96C0H         PUBLIC        _phy_flowcontrol_set
  C:6991H         SYMBOL        _sfp_detect
  C:846DH         SYMBOL        _sfp_i2c_read
  C:8E44H         SYMBOL        _do_link_up
  C:8261H         PUBLIC        _phy_state_to_setup
  X:E454H         SYMBOL        linkup_cport_mask
  D:0098H         PUBLIC        SCON
  D:0088H         PUBLIC        TCON
  C:8ECAH         SYMBOL        _serdes_port_sfp_detect
  C:6C8FH         SYMBOL        _serdes_link_mode_get
  X:E458H         SYMBOL        port_fc_config
  C:8E71H         PUBLIC        phy_check_all
  C:2E52H         SYMBOL        _handle_serdes
  C:95AAH         SYMBOL        __sfp_tx_disable_set
  C:92A8H         SYMBOL        sfp_init
  D:00C8H         PUBLIC        T2CON
  C:5DB8H         SYMBOL        phy_init
  B:0021H.0       SYMBOL        poll_phy_flag
  C:8815H         SYMBOL        _phy_init_state
  D:00D0H         PUBLIC        PSW
  C:721FH         SYMBOL        Com00D1
  C:721FH         SYMBOL        L?0210
  C:7222H         SYMBOL        L?0211
  C:7223H         SYMBOL        L?0212
  C:7225H         SYMBOL        L?0213
  C:722DH         SYMBOL        L?0217
  C:722DH         SYMBOL        L?0218
  C:722FH         SYMBOL        L?0219
  C:7231H         SYMBOL        L?0220
  C:7239H         SYMBOL        L?0221
  C:723CH         SYMBOL        L?0222
  C:723DH         SYMBOL        L?0223
  C:7247H         SYMBOL        L?0226
  C:7263H         SYMBOL        L?0229
  C:7263H         SYMBOL        L?0230
  C:726DH         SYMBOL        L?0233
  C:726DH         SYMBOL        L?0234
  C:7278H         SYMBOL        L?0236
  C:727BH         SYMBOL        L?0237
BL51 BANKED LINKER/LOCATER V6.22.2.0                                                  11/30/2021  16:22:28  PAGE 108


  C:7284H         SYMBOL        L?0240
  C:7284H         SYMBOL        L?0241
  C:728DH         SYMBOL        L?0242
  C:729AH         SYMBOL        L?0243
  C:72A7H         SYMBOL        L?0244
  C:72AAH         SYMBOL        L?0245
  C:72B1H         SYMBOL        L?0246
  C:72B3H         SYMBOL        L?0247
  C:72BAH         SYMBOL        L?0252
  C:72BAH         SYMBOL        L?0253
  C:72C1H         SYMBOL        L?0254
  -------         PROC          COM00D1
  -------         ENDPROC       COM00D1
  C:5E96H         SYMBOL        L?0214
  C:5EA8H         SYMBOL        L?0235
  C:5EB5H         SYMBOL        L?0248
  -------         PROC          PHY_INIT
  -------         DO            
  X:E2CCH         SYMBOL        iport_idx
  X:E2CDH         SYMBOL        chip_port
  X:E2CEH         SYMBOL        reg_val
  -------         ENDDO         
  C:5DB8H         LINE#         173
  C:5DB8H         LINE#         174
  C:5DB8H         LINE#         179
  C:5DBDH         LINE#         211
  C:5DC2H         LINE#         237
  C:5DC7H         LINE#         238
  C:5DCCH         LINE#         239
  C:5DD3H         LINE#         241
  C:5DE2H         LINE#         242
  C:5DEDH         LINE#         244
  C:5DF5H         LINE#         245
  C:5E05H         LINE#         247
  C:5E1DH         LINE#         251
  C:5E23H         LINE#         252
  C:5E25H         LINE#         253
  C:5E2DH         LINE#         254
  C:5E2FH         LINE#         255
  C:5E2FH         LINE#         256
  C:5E37H         LINE#         257
  C:5E39H         LINE#         261
  C:5E3EH         LINE#         262
  C:5E46H         LINE#         263
  C:5E48H         LINE#         264
  C:5E48H         LINE#         265
  C:5E50H         LINE#         266
  C:5E57H         LINE#         267
  C:5E5DH         LINE#         268
  C:5E5DH         LINE#         270
  C:5E65H         LINE#         271
  C:5E6DH         LINE#         272
  C:5E6FH         LINE#         274
  C:5E78H         LINE#         275
  C:5E81H         LINE#         276
  C:5E84H         LINE#         278
  C:5E8CH         LINE#         279
BL51 BANKED LINKER/LOCATER V6.22.2.0                                                  11/30/2021  16:22:28  PAGE 109


  C:5E8CH         LINE#         280
  C:5E8CH         LINE#         281
  C:5E95H         LINE#         296
  -------         ENDPROC       PHY_INIT
  -------         PROC          __SFP_TX_DISABLE_SET
  D:0007H         SYMBOL        chip_port
  D:0005H         SYMBOL        is_disable
  C:95AAH         LINE#         298
  C:95AAH         LINE#         299
  C:95AAH         LINE#         312
  C:95AFH         LINE#         313
  C:95B4H         LINE#         314
  C:95B4H         LINE#         321
  -------         ENDPROC       __SFP_TX_DISABLE_SET
  -------         PROC          SFP_INIT
  C:92A8H         LINE#         326
  C:92A8H         LINE#         327
  C:92A8H         LINE#         377
  C:92AFH         LINE#         378
  C:92B6H         LINE#         380
  C:92BDH         LINE#         381
  -------         ENDPROC       SFP_INIT
  -------         PROC          _PHY_INIT_STATE
  X:E2CCH         SYMBOL        chip_port
  C:8815H         LINE#         386
  C:881AH         LINE#         387
  C:881AH         LINE#         388
  C:881FH         LINE#         389
  C:882FH         LINE#         390
  C:8843H         LINE#         391
  C:8846H         LINE#         392
  C:8846H         LINE#         393
  C:8849H         LINE#         394
  C:8849H         LINE#         395
  C:8849H         LINE#         397
  C:8854H         LINE#         398
  C:8857H         LINE#         399
  C:8857H         LINE#         401
  C:8857H         LINE#         402
  C:8859H         LINE#         403
  C:8859H         LINE#         404
  -------         ENDPROC       _PHY_INIT_STATE
  -------         PROC          _PHY_LINK_MODE_GET
  X:E2D1H         SYMBOL        chip_port
  -------         DO            
  D:0006H         SYMBOL        eee_advertisement
  X:E2D2H         SYMBOL        link_mode
  -------         ENDDO         
  C:83A0H         LINE#         425
  C:83A5H         LINE#         426
  C:83A5H         LINE#         428
  C:83A9H         LINE#         430
  C:83AEH         LINE#         431
  C:83BBH         LINE#         434
  C:83C9H         LINE#         435
  C:83D0H         LINE#         436
  C:83D0H         LINE#         439
BL51 BANKED LINKER/LOCATER V6.22.2.0                                                  11/30/2021  16:22:28  PAGE 110


  C:83D8H         LINE#         440
  C:83D9H         LINE#         443
  C:83E9H         LINE#         446
  C:83EDH         LINE#         447
  C:83F4H         LINE#         448
  C:83FAH         LINE#         449
  C:8401H         LINE#         450
  C:8401H         LINE#         451
  C:8401H         LINE#         453
  C:8406H         LINE#         454
  -------         ENDPROC       _PHY_LINK_MODE_GET
  -------         PROC          _SERDES_LINK_MODE_GET
  X:E2DAH         SYMBOL        chip_port
  -------         DO            
  X:E2DBH         SYMBOL        mac_if
  X:E2DCH         SYMBOL        lm
  -------         ENDDO         
  C:6C8FH         LINE#         457
  C:6C94H         LINE#         458
  C:6C94H         LINE#         460
  C:6C9AH         LINE#         462
  C:6CA3H         LINE#         463
  C:6CB0H         LINE#         464
  C:6CB9H         LINE#         468
  C:6CC1H         LINE#         470
  C:6CCBH         LINE#         471
  C:6CD3H         LINE#         472
  C:6CDDH         LINE#         473
  C:6CEAH         LINE#         474
  C:6CEAH         LINE#         478
  C:6CEFH         LINE#         479
  C:6D3AH         LINE#         481
  C:6D3AH         LINE#         482
  C:6D46H         LINE#         483
  C:6D46H         LINE#         485
  C:6D46H         LINE#         487
  C:6D4BH         LINE#         488
  -------         ENDPROC       _SERDES_LINK_MODE_GET
  -------         PROC          _DO_LINK_UP
  X:E2DAH         SYMBOL        chip_port
  X:E2DBH         SYMBOL        link_mode
  C:8E44H         LINE#         491
  C:8E4CH         LINE#         492
  C:8E4CH         LINE#         493
  C:8E54H         LINE#         496
  C:8E57H         LINE#         497
  C:8E64H         LINE#         499
  C:8E69H         LINE#         500
  -------         ENDPROC       _DO_LINK_UP
  -------         PROC          _DO_LINK_DOWN
  X:E2DAH         SYMBOL        chip_port
  C:8C8FH         LINE#         503
  C:8C92H         LINE#         504
  C:8C92H         LINE#         505
  C:8C9AH         LINE#         507
  C:8CA4H         LINE#         509
  C:8CACH         LINE#         510
BL51 BANKED LINKER/LOCATER V6.22.2.0                                                  11/30/2021  16:22:28  PAGE 111


  C:8CACH         LINE#         512
  C:8CB6H         LINE#         513
  C:8CBFH         LINE#         514
  -------         ENDPROC       _DO_LINK_DOWN
  -------         PROC          _PHY_FLOWCONTROL_GET
  D:0007H         SYMBOL        chip_port
  C:96BAH         LINE#         517
  C:96BAH         LINE#         518
  C:96BAH         LINE#         538
  C:96BFH         LINE#         544
  -------         ENDPROC       _PHY_FLOWCONTROL_GET
  C:4C99H         SYMBOL        L?0215
  C:4CADH         SYMBOL        L?0224
  C:4CBEH         SYMBOL        L?0231
  C:4CCCH         SYMBOL        L?0232
  C:4CDFH         SYMBOL        L?0239
  C:4CEEH         SYMBOL        L?0249
  -------         PROC          _HANDLE_PHY
  X:E2CCH         SYMBOL        chip_port
  -------         DO            
  X:E2CDH         SYMBOL        link_mode
  X:E2CEH         SYMBOL        phy_data
  -------         DO            
  X:E2D0H         SYMBOL        speed
  -------         ENDDO         
  -------         ENDDO         
  C:4B0FH         LINE#         549
  C:4B14H         LINE#         550
  C:4B14H         LINE#         555
  C:4B2BH         LINE#         556
  C:4B2BH         LINE#         557
  C:4B2BH         LINE#         558
  C:4B2BH         LINE#         560
  C:4B2BH         LINE#         563
  C:4B36H         LINE#         566
  C:4B38H         LINE#         567
  C:4B3DH         LINE#         568
  C:4B3FH         LINE#         569
  C:4B41H         LINE#         570
  C:4B4BH         LINE#         571
  C:4B4BH         LINE#         574
  C:4B59H         LINE#         575
  C:4B5DH         LINE#         576
  C:4B60H         LINE#         577
  C:4B63H         LINE#         578
  C:4B63H         LINE#         582
  C:4B69H         LINE#         584
  C:4B6FH         LINE#         586
  C:4B6FH         LINE#         587
  C:4B72H         LINE#         588
  C:4B72H         LINE#         590
  C:4B72H         LINE#         591
  C:4B78H         LINE#         593
  C:4B78H         LINE#         596
  C:4B78H         LINE#         597
  C:4B80H         LINE#         599
  C:4B87H         LINE#         601
BL51 BANKED LINKER/LOCATER V6.22.2.0                                                  11/30/2021  16:22:28  PAGE 112


  C:4B8BH         LINE#         602
  C:4B8EH         LINE#         603
  C:4B94H         LINE#         604
  C:4B9AH         LINE#         605
  C:4BA4H         LINE#         606
  C:4BAAH         LINE#         607
  C:4BB4H         LINE#         608
  C:4BBAH         LINE#         609
  C:4BC6H         LINE#         610
  C:4BCAH         LINE#         611
  C:4BCCH         LINE#         612
  C:4BD3H         LINE#         613
  C:4BD3H         LINE#         614
  C:4BDCH         LINE#         615
  C:4BE0H         LINE#         616
  C:4BE2H         LINE#         617
  C:4BE9H         LINE#         618
  C:4BE9H         LINE#         622
  C:4BEFH         LINE#         625
  C:4BF7H         LINE#         627
  C:4BFDH         LINE#         630
  C:4C05H         LINE#         632
  C:4C0FH         LINE#         633
  C:4C17H         LINE#         634
  C:4C17H         LINE#         635
  C:4C1FH         LINE#         636
  C:4C1FH         LINE#         637
  C:4C21H         LINE#         638
  C:4C21H         LINE#         639
  C:4C2BH         LINE#         640
  C:4C2EH         LINE#         641
  C:4C2EH         LINE#         644
  C:4C3AH         LINE#         645
  C:4C3AH         LINE#         648
  C:4C40H         LINE#         649
  C:4C40H         LINE#         650
  C:4C41H         LINE#         651
  C:4C41H         LINE#         653
  C:4C41H         LINE#         654
  C:4C44H         LINE#         656
  C:4C44H         LINE#         658
  C:4C59H         LINE#         659
  C:4C61H         LINE#         662
  C:4C6AH         LINE#         663
  C:4C75H         LINE#         664
  C:4C78H         LINE#         666
  C:4C7EH         LINE#         667
  C:4C84H         LINE#         668
  C:4C87H         LINE#         671
  C:4C92H         LINE#         674
  C:4C98H         LINE#         675
  C:4C98H         LINE#         676
  C:4C98H         LINE#         677
  C:4C98H         LINE#         678
  C:4C98H         LINE#         680
  C:4C98H         LINE#         681
  C:4C98H         LINE#         682
BL51 BANKED LINKER/LOCATER V6.22.2.0                                                  11/30/2021  16:22:28  PAGE 113


  C:4C98H         LINE#         683
  -------         ENDPROC       _HANDLE_PHY
  -------         PROC          _SFP_I2C_READ
  X:E2F9H         SYMBOL        dev
  X:E2FAH         SYMBOL        port_no
  X:E2FBH         SYMBOL        addr
  X:E2FCH         SYMBOL        value
  X:E2FFH         SYMBOL        cnt
  -------         DO            
  D:0007H         SYMBOL        ret
  X:E300H         SYMBOL        i2c_scl_gpio
  -------         ENDDO         
  C:846DH         LINE#         741
  C:847DH         LINE#         742
  C:847DH         LINE#         748
  C:8483H         LINE#         749
  C:8485H         LINE#         751
  C:8492H         LINE#         752
  C:84AEH         LINE#         754
  C:84CDH         LINE#         772
  C:84CDH         LINE#         773
  -------         ENDPROC       _SFP_I2C_READ
  C:6A39H         SYMBOL        L?0227
  -------         PROC          _SFP_DETECT
  X:E2DAH         SYMBOL        chip_port
  -------         DO            
  X:E2DBH         SYMBOL        buf
  -------         ENDDO         
  C:6991H         LINE#         783
  C:6996H         LINE#         784
  C:6996H         LINE#         788
  C:6996H         LINE#         858
  C:699FH         LINE#         860
  C:69A6H         LINE#         871
  C:69ADH         LINE#         872
  C:69ADH         LINE#         875
  C:69B6H         LINE#         876
  C:69BEH         LINE#         879
  C:69C6H         LINE#         881
  C:69CCH         LINE#         883
  C:69CEH         LINE#         884
  C:69D6H         LINE#         886
  C:69DCH         LINE#         888
  C:69DEH         LINE#         889
  C:69E6H         LINE#         891
  C:69ECH         LINE#         893
  C:69EEH         LINE#         894
  C:69F6H         LINE#         896
  C:6A02H         LINE#         898
  C:6A05H         LINE#         899
  C:6A0DH         LINE#         901
  C:6A13H         LINE#         903
  C:6A15H         LINE#         904
  C:6A1FH         LINE#         906
  C:6A29H         LINE#         908
  C:6A2CH         LINE#         909
  C:6A2CH         LINE#         911
BL51 BANKED LINKER/LOCATER V6.22.2.0                                                  11/30/2021  16:22:28  PAGE 114


  C:6A33H         LINE#         913
  C:6A36H         LINE#         914
  C:6A36H         LINE#         915
  C:6A36H         LINE#         917
  C:6A38H         LINE#         918
  C:6A38H         LINE#         920
  -------         ENDPROC       _SFP_DETECT
  -------         PROC          _SERDES_PORT_SFP_DETECT
  X:E2DAH         SYMBOL        chip_port
  -------         DO            
  X:E2DBH         SYMBOL        gpio_value
  -------         ENDDO         
  C:8ECAH         LINE#         924
  C:8ECFH         LINE#         932
  C:8ECFH         LINE#         933
  C:8ED2H         LINE#         936
  C:8ED8H         LINE#         970
  C:8EE0H         LINE#         971
  C:8EE0H         LINE#         972
  C:8EEAH         LINE#         973
  C:8EEAH         LINE#         974
  C:8EEAH         LINE#         975
  C:8EEAH         LINE#         976
  C:8EEAH         LINE#         978
  C:8EEAH         LINE#         980
  C:8EF5H         LINE#         981
  -------         ENDPROC       _SERDES_PORT_SFP_DETECT
  C:31EDH         SYMBOL        L?0216
  C:3209H         SYMBOL        L?0225
  C:3217H         SYMBOL        L?0228
  C:3225H         SYMBOL        L?0238
  C:3236H         SYMBOL        L?0250
  C:3242H         SYMBOL        L?0251
  -------         PROC          _HANDLE_SERDES
  X:E2CCH         SYMBOL        chip_port
  -------         DO            
  X:E2CDH         SYMBOL        mac_if
  X:E2CEH         SYMBOL        lm
  X:E2CFH         SYMBOL        sfp_existed
  X:E2D0H         SYMBOL        speed
  -------         DO            
  X:E2D1H         SYMBOL        media_if
  X:E2D2H         SYMBOL        sd1g_addr
  X:E2D6H         SYMBOL        sd6g_addr
  -------         ENDDO         
  -------         DO            
  X:E2D1H         SYMBOL        lm_same_cnt
  X:E2D2H         SYMBOL        lm_retry_cnt
  -------         DO            
  X:E2D3H         SYMBOL        tgt
  X:E2D7H         SYMBOL        giga_mode_ena
  -------         ENDDO         
  -------         ENDDO         
  -------         ENDDO         
  C:2E52H         LINE#         984
  C:2E57H         LINE#         992
  C:2E57H         LINE#         993
BL51 BANKED LINKER/LOCATER V6.22.2.0                                                  11/30/2021  16:22:28  PAGE 115


  C:2E5DH         LINE#         995
  C:2E7DH         LINE#         996
  C:2E7DH         LINE#         997
  C:2E7DH         LINE#         998
  C:2E7DH         LINE#         1000
  C:2E7DH         LINE#         1002
  C:2E80H         LINE#         1003
  C:2E83H         LINE#         1004
  C:2E83H         LINE#         1006
  C:2E83H         LINE#         1010
  C:2E8DH         LINE#         1011
  C:2E97H         LINE#         1015
  C:2E9AH         LINE#         1045
  C:2E9CH         LINE#         1048
  C:2EA1H         LINE#         1049
  C:2EAEH         LINE#         1050
  C:2EB0H         LINE#         1051
  C:2EB8H         LINE#         1053
  C:2EB8H         LINE#         1055
  C:2EC0H         LINE#         1056
  C:2EC8H         LINE#         1057
  C:2ECEH         LINE#         1058
  C:2ECEH         LINE#         1063
  C:2ED7H         LINE#         1066
  C:2EE1H         LINE#         1067
  C:2EEBH         LINE#         1069
  C:2EF5H         LINE#         1105
  C:2EFAH         LINE#         1106
  C:2EFAH         LINE#         1107
  C:2F04H         LINE#         1108
  C:2F04H         LINE#         1109
  C:2F04H         LINE#         1112
  C:2F17H         LINE#         1113
  C:2F17H         LINE#         1114
  C:2F1DH         LINE#         1115
  C:2F1FH         LINE#         1116
  C:2F1FH         LINE#         1119
  C:2F1FH         LINE#         1120
  C:2F25H         LINE#         1121
  C:2F27H         LINE#         1122
  C:2F27H         LINE#         1123
  C:2F2DH         LINE#         1124
  C:2F2FH         LINE#         1125
  C:2F2FH         LINE#         1126
  C:2F35H         LINE#         1127
  C:2F35H         LINE#         1129
  C:2F3DH         LINE#         1130
  C:2F51H         LINE#         1131
  C:2F51H         LINE#         1132
  C:2F59H         LINE#         1133
  C:2F6DH         LINE#         1134
  C:2F6DH         LINE#         1137
  C:2F85H         LINE#         1138
  C:2F90H         LINE#         1139
  C:2F90H         LINE#         1141
  C:2FA8H         LINE#         1142
  C:2FBAH         LINE#         1143
BL51 BANKED LINKER/LOCATER V6.22.2.0                                                  11/30/2021  16:22:28  PAGE 116


  C:2FBAH         LINE#         1145
  C:2FBAH         LINE#         1147
  C:2FC4H         LINE#         1148
  C:2FC4H         LINE#         1150
  C:2FC4H         LINE#         1152
  C:2FC7H         LINE#         1153
  C:2FC7H         LINE#         1155
  C:2FC7H         LINE#         1156
  C:2FCDH         LINE#         1158
  C:2FD4H         LINE#         1161
  C:2FDEH         LINE#         1163
  C:2FE1H         LINE#         1164
  C:2FE3H         LINE#         1165
  C:2FEBH         LINE#         1168
  C:2FEBH         LINE#         1169
  C:2FEBH         LINE#         1170
  C:2FEBH         LINE#         1173
  C:2FF0H         LINE#         1174
  C:2FF3H         LINE#         1175
  C:2FF3H         LINE#         1178
  C:2FF6H         LINE#         1179
  C:2FFBH         LINE#         1180
  C:3003H         LINE#         1182
  C:300AH         LINE#         1183
  C:301BH         LINE#         1184
  C:303DH         LINE#         1198
  C:3057H         LINE#         1203
  C:30DEH         LINE#         1205
  C:30DEH         LINE#         1207
  C:30E5H         LINE#         1210
  C:30E5H         LINE#         1211
  C:30EAH         LINE#         1212
  C:30F1H         LINE#         1213
  C:30F7H         LINE#         1214
  C:30F7H         LINE#         1215
  C:3108H         LINE#         1217
  C:3114H         LINE#         1219
  C:3114H         LINE#         1221
  C:3118H         LINE#         1222
  C:311BH         LINE#         1223
  C:3121H         LINE#         1224
  C:3127H         LINE#         1225
  C:3131H         LINE#         1226
  C:3137H         LINE#         1227
  C:3141H         LINE#         1228
  C:3147H         LINE#         1229
  C:3153H         LINE#         1230
  C:3157H         LINE#         1231
  C:3159H         LINE#         1232
  C:3160H         LINE#         1233
  C:3160H         LINE#         1234
  C:3169H         LINE#         1235
  C:316DH         LINE#         1236
  C:316FH         LINE#         1237
  C:3176H         LINE#         1238
  C:3176H         LINE#         1240
  C:317DH         LINE#         1241
BL51 BANKED LINKER/LOCATER V6.22.2.0                                                  11/30/2021  16:22:28  PAGE 117


  C:3186H         LINE#         1242
  C:3186H         LINE#         1243
  C:3186H         LINE#         1245
  C:3186H         LINE#         1246
  C:3187H         LINE#         1247
  C:3187H         LINE#         1249
  C:3187H         LINE#         1250
  C:318AH         LINE#         1252
  C:3197H         LINE#         1253
  C:3199H         LINE#         1254
  C:31A1H         LINE#         1255
  C:31A9H         LINE#         1258
  C:31A9H         LINE#         1259
  C:31A9H         LINE#         1260
  C:31A9H         LINE#         1263
  C:31B4H         LINE#         1264
  C:31B5H         LINE#         1265
  C:31B5H         LINE#         1269
  C:31B8H         LINE#         1270
  C:31D1H         LINE#         1271
  C:31D1H         LINE#         1273
  C:31D5H         LINE#         1274
  C:31D8H         LINE#         1275
  C:31DBH         LINE#         1278
  C:31E3H         LINE#         1279
  C:31ECH         LINE#         1280
  C:31ECH         LINE#         1281
  C:31ECH         LINE#         1282
  C:31ECH         LINE#         1283
  C:31ECH         LINE#         1285
  C:31ECH         LINE#         1286
  C:31ECH         LINE#         1287
  C:31ECH         LINE#         1288
  -------         ENDPROC       _HANDLE_SERDES
  -------         PROC          PHY_TIMER_10
  -------         DO            
  X:E42EH         SYMBOL        poll_phy_timer
  -------         ENDDO         
  C:9435H         LINE#         1299
  C:9435H         LINE#         1300
  C:9435H         LINE#         1303
  C:9444H         LINE#         1304
  C:9446H         LINE#         1305
  C:9448H         LINE#         1306
  C:9448H         LINE#         1308
  -------         ENDPROC       PHY_TIMER_10
  -------         PROC          PHY_CHECK_ALL
  -------         DO            
  X:E2CCH         SYMBOL        iport_idx
  X:E2CDH         SYMBOL        chip_port
  X:E2CEH         SYMBOL        error
  -------         ENDDO         
  C:8E71H         LINE#         1311
  C:8E71H         LINE#         1312
  C:8E71H         LINE#         1315
  C:8E76H         LINE#         1317
  C:8E82H         LINE#         1318
BL51 BANKED LINKER/LOCATER V6.22.2.0                                                  11/30/2021  16:22:28  PAGE 118


  C:8E8DH         LINE#         1319
  C:8E90H         LINE#         1326
  C:8E90H         LINE#         1327
  C:8E98H         LINE#         1329
  C:8E9DH         LINE#         1330
  -------         ENDPROC       PHY_CHECK_ALL
  -------         PROC          PHY_TSK_INIT
  -------         DO            
  X:E2CAH         SYMBOL        iport_idx
  X:E2CBH         SYMBOL        chip_port
  -------         ENDDO         
  C:8100H         LINE#         1350
  C:8100H         LINE#         1351
  C:8100H         LINE#         1356
  C:810AH         LINE#         1358
  C:8117H         LINE#         1359
  C:8122H         LINE#         1360
  C:8128H         LINE#         1361
  C:8137H         LINE#         1364
  C:813CH         LINE#         1367
  C:8141H         LINE#         1368
  C:8149H         LINE#         1370
  C:8156H         LINE#         1371
  C:815FH         LINE#         1373
  C:815FH         LINE#         1375
  C:8168H         LINE#         1377
  C:816BH         LINE#         1378
  C:816EH         LINE#         1380
  C:8174H         LINE#         1381
  C:8177H         LINE#         1382
  C:8177H         LINE#         1384
  C:8179H         LINE#         1385
  -------         ENDPROC       PHY_TSK_INIT
  -------         PROC          _PHY_STATE_TO_SETUP
  X:E2CFH         SYMBOL        chip_port
  C:8261H         LINE#         1388
  C:8266H         LINE#         1389
  C:8266H         LINE#         1391
  C:826BH         LINE#         1392
  C:8278H         LINE#         1393
  C:827BH         LINE#         1395
  C:8289H         LINE#         1396
  C:8296H         LINE#         1397
  C:82A3H         LINE#         1400
  C:82B1H         LINE#         1401
  C:82B1H         LINE#         1402
  C:82BAH         LINE#         1403
  C:82BBH         LINE#         1405
  C:82C6H         LINE#         1406
  C:82CFH         LINE#         1407
  C:82CFH         LINE#         1409
  -------         ENDPROC       _PHY_STATE_TO_SETUP
  -------         PROC          _PHY_FLOWCONTROL_SET
  D:0007H         SYMBOL        chip_port
  D:0005H         SYMBOL        mode_enabled
  C:96C0H         LINE#         1411
  C:96C0H         LINE#         1412
BL51 BANKED LINKER/LOCATER V6.22.2.0                                                  11/30/2021  16:22:28  PAGE 119


  C:96C0H         LINE#         1413
  C:96C5H         LINE#         1414
  -------         ENDPROC       _PHY_FLOWCONTROL_SET
  -------         PROC          PHY_TSK
  -------         DO            
  X:E2CAH         SYMBOL        iport_idx
  X:E2CBH         SYMBOL        chip_port
  -------         ENDDO         
  C:885AH         LINE#         1417
  C:885AH         LINE#         1418
  C:885AH         LINE#         1422
  C:8867H         LINE#         1423
  C:8872H         LINE#         1424
  C:8877H         LINE#         1425
  C:887FH         LINE#         1426
  C:8881H         LINE#         1428
  C:888CH         LINE#         1429
  C:8894H         LINE#         1430
  C:8894H         LINE#         1432
  C:889CH         LINE#         1434
  C:889EH         LINE#         1435
  -------         ENDPROC       PHY_TSK
  -------         PROC          _PORT_LINK_MODE_GET
  D:0007H         SYMBOL        chip_port
  C:9636H         LINE#         1437
  C:9636H         LINE#         1438
  C:9636H         LINE#         1439
  C:963EH         LINE#         1440
  -------         ENDPROC       _PORT_LINK_MODE_GET
  -------         PROC          _IS_PORT_LINK
  D:0007H         SYMBOL        chip_port
  C:9544H         LINE#         1442
  C:9544H         LINE#         1443
  C:9544H         LINE#         1444
  C:954CH         LINE#         1445
  C:954FH         LINE#         1446
  C:954FH         LINE#         1448
  C:9551H         LINE#         1449
  -------         ENDPROC       _IS_PORT_LINK
  -------         ENDMOD        PHYTSK

  -------         MODULE        PHYMAP
  C:0000H         SYMBOL        _ICE_DUMMY_
  D:0090H         PUBLIC        P1
  D:00B0H         PUBLIC        P3
  D:00A8H         PUBLIC        IE
  D:00B8H         PUBLIC        IP
  X:E4A9H         SYMBOL        cport_to_miim_bus
  C:9130H         SYMBOL        cport_to_coma_mode_disable
  D:0098H         PUBLIC        SCON
  D:0088H         PUBLIC        TCON
  C:9552H         PUBLIC        _phy_map_miim_no
  C:913BH         SYMBOL        _?ix1000
  C:8F21H         PUBLIC        _phy_map_serdes
  C:9535H         PUBLIC        _phy_map_phy_no
  D:00C8H         PUBLIC        T2CON
  C:93E1H         PUBLIC        _phy_map
BL51 BANKED LINKER/LOCATER V6.22.2.0                                                  11/30/2021  16:22:28  PAGE 120


  C:95B5H         PUBLIC        _phy_map_serdes_if_update
  C:8B4EH         PUBLIC        _phy_map_serdes_if_restore
  D:00D0H         PUBLIC        PSW
  C:9125H         SYMBOL        cport_to_miim_addr
  C:9449H         SYMBOL        Com0014
  C:9449H         SYMBOL        L?0021
  C:9449H         SYMBOL        L?0022
  C:944CH         SYMBOL        L?0023
  C:9454H         SYMBOL        L?0024
  C:9454H         SYMBOL        L?0025
  C:9456H         SYMBOL        L?0026
  -------         PROC          COM0014
  -------         ENDPROC       COM0014
  -------         PROC          _PHY_MAP_MIIM_NO
  D:0007H         SYMBOL        chip_port
  C:9552H         LINE#         78
  C:9552H         LINE#         87
  C:9557H         LINE#         88
  C:955DH         LINE#         89
  C:955DH         LINE#         97
  C:955FH         LINE#         98
  -------         ENDPROC       _PHY_MAP_MIIM_NO
  -------         PROC          _PHY_MAP_PHY_NO
  D:0007H         SYMBOL        chip_port
  C:9535H         LINE#         128
  C:9535H         LINE#         137
  C:953AH         LINE#         138
  C:9541H         LINE#         139
  C:9541H         LINE#         147
  C:9543H         LINE#         148
  -------         ENDPROC       _PHY_MAP_PHY_NO
  -------         PROC          _PHY_MAP
  D:0007H         SYMBOL        chip_port
  C:93E1H         LINE#         153
  C:93E1H         LINE#         162
  C:93E6H         LINE#         163
  C:93F4H         LINE#         165
  C:93F4H         LINE#         173
  C:93F5H         LINE#         174
  -------         ENDPROC       _PHY_MAP
  -------         PROC          _PHY_MAP_SERDES
  D:0007H         SYMBOL        chip_port
  C:8F21H         LINE#         179
  C:8F21H         LINE#         188
  C:8F26H         LINE#         189
  C:8F49H         LINE#         194
  C:8F49H         LINE#         202
  C:8F4BH         LINE#         203
  -------         ENDPROC       _PHY_MAP_SERDES
  -------         PROC          _PHY_MAP_SERDES_IF_UPDATE
  D:0007H         SYMBOL        chip_port
  D:0005H         SYMBOL        mac_if
  C:95B5H         LINE#         206
  C:95B5H         LINE#         215
  C:95BAH         LINE#         216
  C:95BFH         LINE#         218
  C:95BFH         LINE#         225
BL51 BANKED LINKER/LOCATER V6.22.2.0                                                  11/30/2021  16:22:28  PAGE 121


  -------         ENDPROC       _PHY_MAP_SERDES_IF_UPDATE
  -------         PROC          _PHY_MAP_SERDES_IF_RESTORE
  D:002EH         SYMBOL        chip_port
  -------         DO            
  D:002FH         SYMBOL        cport_to_miim_bus_ori
  -------         ENDDO         
  C:8B4EH         LINE#         228
  C:8B50H         LINE#         230
  C:8B63H         LINE#         232
  C:8B6BH         LINE#         233
  C:8B7DH         LINE#         234
  C:8B86H         LINE#         235
  C:8B86H         LINE#         237
  C:8B86H         LINE#         244
  -------         ENDPROC       _PHY_MAP_SERDES_IF_RESTORE
  -------         ENDMOD        PHYMAP

  -------         MODULE        PHYDRV
  C:0000H         SYMBOL        _ICE_DUMMY_
  C:96C6H         PUBLIC        _phy_power_down
  C:966AH         PUBLIC        _phy_page_std
  D:0090H         PUBLIC        P1
  C:9610H         PUBLIC        _phy_post_reset
  C:9606H         PUBLIC        _phy_pre_reset
  D:00B0H         PUBLIC        P3
  B:00A8H.7       PUBLIC        EA
  C:9166H         PUBLIC        _phy_do_link_down_settings
  D:00A8H         PUBLIC        IE
  C:963FH         PUBLIC        _phy_page_tp
  D:00B8H         PUBLIC        IP
  C:9648H         PUBLIC        _phy_page_tr
  C:932DH         PUBLIC        _phy_get_speed_and_fdx
  C:8696H         PUBLIC        _phy_mmd_rd
  D:0098H         PUBLIC        SCON
  D:0088H         PUBLIC        TCON
  C:8787H         PUBLIC        _phy_do_link_up_settings
  C:945DH         PUBLIC        _phy_restart_aneg
  C:8DE9H         PUBLIC        _phy_write_masked
  C:7420H         PUBLIC        _phy_receiver_reconfig
  C:7BE7H         SYMBOL        __phy_read_reg_data
  C:90E2H         PUBLIC        _phy_read
  C:81F0H         PUBLIC        _phy_write
  C:961AH         PUBLIC        _phy_setup
  D:00C8H         PUBLIC        T2CON
  C:957AH         PUBLIC        _phy_link_status
  C:8F4CH         SYMBOL        _phy_await_completed
  D:00D0H         PUBLIC        PSW
  C:858AH         SYMBOL        Com0031
  C:858AH         SYMBOL        L?0050
  C:859BH         SYMBOL        L?0051
  C:85A8H         SYMBOL        L?0053
  C:85B8H         SYMBOL        L?0054
  C:85C6H         SYMBOL        L?0055
  C:85D2H         SYMBOL        L?0056
  C:85DFH         SYMBOL        L?0057
  C:85DFH         SYMBOL        L?0058
  -------         PROC          COM0031
BL51 BANKED LINKER/LOCATER V6.22.2.0                                                  11/30/2021  16:22:28  PAGE 122


  -------         ENDPROC       COM0031
  -------         PROC          _PHY_AWAIT_COMPLETED
  D:0042H         SYMBOL        miim_no
  -------         DO            
  D:0043H         SYMBOL        dat
  -------         ENDDO         
  C:8F4CH         LINE#         235
  C:8F4EH         LINE#         241
  C:8F4EH         LINE#         242
  C:8F67H         LINE#         243
  C:8F73H         LINE#         250
  -------         ENDPROC       _PHY_AWAIT_COMPLETED
  -------         PROC          __PHY_READ_REG_DATA
  D:0038H         SYMBOL        chip_port
  D:0039H         SYMBOL        reg_no
  D:003AH         SYMBOL        phy_data
  -------         DO            
  D:003DH         SYMBOL        reg_data
  D:0041H         SYMBOL        miim_no
  -------         ENDDO         
  C:7BE7H         LINE#         306
  C:7BF1H         LINE#         309
  C:7BF6H         LINE#         320
  C:7C27H         LINE#         323
  C:7C36H         LINE#         326
  C:7C3BH         LINE#         328
  C:7C54H         LINE#         330
  C:7C60H         LINE#         334
  C:7C60H         LINE#         343
  C:7C63H         LINE#         344
  C:7C63H         LINE#         346
  C:7C71H         LINE#         347
  C:7C73H         LINE#         348
  -------         ENDPROC       __PHY_READ_REG_DATA
  -------         PROC          _PHY_READ
  D:0034H         SYMBOL        port_no
  D:0035H         SYMBOL        reg_no
  -------         DO            
  D:0036H         SYMBOL        phy_data
  -------         ENDDO         
  C:90E2H         LINE#         364
  C:90E6H         LINE#         368
  C:90EBH         LINE#         376
  C:90EFH         LINE#         377
  C:90EFH         LINE#         380
  C:90FFH         LINE#         383
  C:9103H         LINE#         384
  -------         ENDPROC       _PHY_READ
  -------         PROC          _PHY_WRITE
  D:0034H         SYMBOL        port_no
  D:0035H         SYMBOL        reg_no
  D:0036H         SYMBOL        value
  -------         DO            
  D:0038H         SYMBOL        miim_no
  D:0004H         SYMBOL        dat
  -------         ENDDO         
  C:81F0H         LINE#         393
BL51 BANKED LINKER/LOCATER V6.22.2.0                                                  11/30/2021  16:22:28  PAGE 123


  C:81F8H         LINE#         395
  C:81F8H         LINE#         400
  C:81FDH         LINE#         409
  C:81FDH         LINE#         411
  C:8204H         LINE#         420
  C:824CH         LINE#         431
  C:825BH         LINE#         434
  C:8260H         LINE#         437
  -------         ENDPROC       _PHY_WRITE
  -------         PROC          _PHY_WRITE_MASKED
  D:002EH         SYMBOL        port_no
  D:002FH         SYMBOL        reg_no
  D:0030H         SYMBOL        value
  D:0032H         SYMBOL        mask
  C:8DE9H         LINE#         450
  C:8DF1H         LINE#         453
  C:8DF1H         LINE#         455
  -------         ENDPROC       _PHY_WRITE_MASKED
  C:86DCH         SYMBOL        L?0052
  -------         PROC          _PHY_MMD_RD
  X:E2D3H         SYMBOL        port_no
  X:E2D4H         SYMBOL        devad
  X:E2D6H         SYMBOL        addr
  C:8696H         LINE#         458
  C:86A9H         LINE#         461
  C:86A9H         LINE#         462
  C:86ACH         LINE#         463
  C:86B4H         LINE#         464
  C:86BCH         LINE#         465
  C:86D2H         LINE#         467
  C:86DCH         LINE#         468
  -------         ENDPROC       _PHY_MMD_RD
  -------         PROC          _PHY_PAGE_STD
  D:0007H         SYMBOL        port_no
  C:966AH         LINE#         470
  C:966AH         LINE#         471
  -------         ENDPROC       _PHY_PAGE_STD
  -------         PROC          _PHY_PAGE_TP
  D:0007H         SYMBOL        port_no
  C:963FH         LINE#         490
  C:963FH         LINE#         491
  -------         ENDPROC       _PHY_PAGE_TP
  -------         PROC          _PHY_PAGE_TR
  D:0007H         SYMBOL        port_no
  C:9648H         LINE#         494
  C:9648H         LINE#         495
  -------         ENDPROC       _PHY_PAGE_TR
  -------         PROC          _PHY_GET_SPEED_AND_FDX
  D:0007H         SYMBOL        port_no
  -------         DO            
  D:0005H         SYMBOL        speed_fdx_mode
  D:0006H         SYMBOL        reg_val
  -------         ENDDO         
  C:932DH         LINE#         499
  C:932DH         LINE#         500
  C:932DH         LINE#         516
  C:9332H         LINE#         519
BL51 BANKED LINKER/LOCATER V6.22.2.0                                                  11/30/2021  16:22:28  PAGE 124


  C:933BH         LINE#         522
  C:933FH         LINE#         523
  C:9343H         LINE#         524
  C:9343H         LINE#         539
  C:9345H         LINE#         540
  -------         ENDPROC       _PHY_GET_SPEED_AND_FDX
  -------         PROC          _PHY_LINK_STATUS
  D:0007H         SYMBOL        chip_port
  C:957AH         LINE#         594
  C:957AH         LINE#         603
  C:9586H         LINE#         604
  -------         ENDPROC       _PHY_LINK_STATUS
  -------         PROC          _PHY_DO_LINK_UP_SETTINGS
  X:E2D1H         SYMBOL        chip_port
  X:E2D2H         SYMBOL        link_mode
  X:E2D3H         SYMBOL        power_mode
  C:8787H         LINE#         611
  C:8796H         LINE#         614
  C:8796H         LINE#         620
  C:879DH         LINE#         621
  C:879DH         LINE#         622
  C:87A9H         LINE#         623
  C:87ABH         LINE#         624
  C:87B8H         LINE#         625
  C:87B8H         LINE#         627
  C:87C2H         LINE#         628
  C:87CFH         LINE#         659
  -------         ENDPROC       _PHY_DO_LINK_UP_SETTINGS
  -------         PROC          _PHY_DO_LINK_DOWN_SETTINGS
  X:E2DBH         SYMBOL        port_no
  C:9166H         LINE#         664
  C:916BH         LINE#         665
  C:916BH         LINE#         666
  C:9171H         LINE#         667
  C:9176H         LINE#         668
  -------         ENDPROC       _PHY_DO_LINK_DOWN_SETTINGS
  -------         PROC          _PHY_POWER_DOWN
  D:0007H         SYMBOL        port_no
  C:96C6H         LINE#         674
  C:96C6H         LINE#         675
  C:96C6H         LINE#         676
  -------         ENDPROC       _PHY_POWER_DOWN
  -------         PROC          _PHY_RECEIVER_RECONFIG
  X:E2D4H         SYMBOL        chip_port
  X:E2D5H         SYMBOL        power_mode
  -------         DO            
  D:0007H         SYMBOL        vga_state_a
  X:E2D6H         SYMBOL        max_vga_state_to_optimize
  X:E2D8H         SYMBOL        phy_id
  -------         ENDDO         
  C:7420H         LINE#         682
  C:742AH         LINE#         683
  C:742AH         LINE#         688
  C:7433H         LINE#         690
  C:7443H         LINE#         691
  C:7443H         LINE#         692
  C:7443H         LINE#         693
BL51 BANKED LINKER/LOCATER V6.22.2.0                                                  11/30/2021  16:22:28  PAGE 125


  C:7443H         LINE#         694
  C:7443H         LINE#         695
  C:7443H         LINE#         700
  C:744DH         LINE#         701
  C:744FH         LINE#         702
  C:744FH         LINE#         703
  C:7459H         LINE#         704
  C:7459H         LINE#         705
  C:7459H         LINE#         707
  C:7461H         LINE#         708
  C:746FH         LINE#         709
  C:7486H         LINE#         710
  C:74A2H         LINE#         711
  C:74A2H         LINE#         712
  C:74AAH         LINE#         713
  C:74BAH         LINE#         714
  C:74BAH         LINE#         730
  C:74BFH         LINE#         733
  -------         ENDPROC       _PHY_RECEIVER_RECONFIG
  -------         PROC          _PHY_RESTART_ANEG
  D:0007H         SYMBOL        port_no
  C:945DH         LINE#         739
  C:945DH         LINE#         740
  C:945DH         LINE#         742
  C:946CH         LINE#         743
  -------         ENDPROC       _PHY_RESTART_ANEG
  -------         PROC          _PHY_PRE_RESET
  D:0007H         SYMBOL        port_no
  -------         DO            
  X:E2D0H         SYMBOL        phy_id
  -------         ENDDO         
  C:9606H         LINE#         754
  C:9606H         LINE#         755
  C:9606H         LINE#         759
  C:960FH         LINE#         761
  C:960FH         LINE#         786
  C:960FH         LINE#         788
  C:960FH         LINE#         789
  C:960FH         LINE#         790
  -------         ENDPROC       _PHY_PRE_RESET
  -------         PROC          _PHY_POST_RESET
  D:0007H         SYMBOL        port_no
  -------         DO            
  X:E2D0H         SYMBOL        phy_id
  -------         ENDDO         
  C:9610H         LINE#         808
  C:9610H         LINE#         809
  C:9610H         LINE#         813
  C:9619H         LINE#         815
  C:9619H         LINE#         933
  C:9619H         LINE#         934
  -------         ENDPROC       _PHY_POST_RESET
  -------         PROC          _PHY_SETUP
  D:0007H         SYMBOL        port_no
  -------         DO            
  X:E2D0H         SYMBOL        phy_id
  -------         ENDDO         
BL51 BANKED LINKER/LOCATER V6.22.2.0                                                  11/30/2021  16:22:28  PAGE 126


  C:961AH         LINE#         939
  C:961AH         LINE#         940
  C:961AH         LINE#         947
  C:9623H         LINE#         949
  C:9623H         LINE#         1019
  C:9623H         LINE#         1020
  C:9623H         LINE#         1021
  C:9623H         LINE#         1022
  -------         ENDPROC       _PHY_SETUP
  -------         ENDMOD        PHYDRV

  -------         MODULE        VERIPHY
  C:0000H         SYMBOL        _ICE_DUMMY_
  D:0090H         PUBLIC        P1
  D:00B0H         PUBLIC        P3
  D:00A8H         PUBLIC        IE
  D:00B8H         PUBLIC        IP
  D:0098H         PUBLIC        SCON
  D:0088H         PUBLIC        TCON
  D:00C8H         PUBLIC        T2CON
  D:00D0H         PUBLIC        PSW
  -------         ENDMOD        VERIPHY

  -------         MODULE        PHY_BASE
  C:0000H         SYMBOL        _ICE_DUMMY_
  C:6A54H         PUBLIC        _phy_read_id
  D:0090H         PUBLIC        P1
  D:00B0H         PUBLIC        P3
  D:00A8H         PUBLIC        IE
  D:00B8H         PUBLIC        IP
  D:0098H         PUBLIC        SCON
  D:0088H         PUBLIC        TCON
  D:00C8H         PUBLIC        T2CON
  D:00D0H         PUBLIC        PSW
  C:900DH         SYMBOL        Com000E
  C:900DH         SYMBOL        L?0015
  C:9014H         SYMBOL        L?0016
  C:9017H         SYMBOL        L?0017
  C:901EH         SYMBOL        L?0018
  C:901EH         SYMBOL        L?0019
  C:9024H         SYMBOL        L?0020
  -------         PROC          COM000E
  -------         ENDPROC       COM000E
  -------         PROC          _PHY_READ_ID
  X:E2DEH         SYMBOL        port_no
  X:E2DFH         SYMBOL        phy_id_p
  -------         DO            
  X:E2E2H         SYMBOL        phy_id_raw
  -------         ENDDO         
  C:6A54H         LINE#         265
  C:6A5FH         LINE#         273
  C:6A5FH         LINE#         276
  C:6A64H         LINE#         277
  C:6A6BH         LINE#         278
  C:6A6BH         LINE#         279
  C:6A72H         LINE#         281
  C:6A72H         LINE#         283
BL51 BANKED LINKER/LOCATER V6.22.2.0                                                  11/30/2021  16:22:28  PAGE 127


  C:6A84H         LINE#         284
  C:6A96H         LINE#         287
  C:6AB6H         LINE#         288
  C:6AB6H         LINE#         289
  C:6ABBH         LINE#         290
  C:6ABDH         LINE#         291
  C:6AC4H         LINE#         292
  C:6AC4H         LINE#         295
  C:6AD7H         LINE#         298
  C:6AF4H         LINE#         299
  C:6AF4H         LINE#         300
  C:6AF6H         LINE#         301
  C:6AFBH         LINE#         302
  C:6AFDH         LINE#         343
  C:6AFDH         LINE#         344
  C:6B05H         LINE#         345
  C:6B0AH         LINE#         346
  C:6B0CH         LINE#         377
  C:6B0CH         LINE#         378
  C:6B0CH         LINE#         379
  C:6B14H         LINE#         380
  C:6B14H         LINE#         381
  C:6B14H         LINE#         382
  -------         ENDPROC       _PHY_READ_ID
  -------         ENDMOD        PHY_BASE

  -------         MODULE        PHY_ATOM12
  C:0000H         SYMBOL        _ICE_DUMMY_
  D:0090H         PUBLIC        P1
  D:00B0H         PUBLIC        P3
  D:00A8H         PUBLIC        IE
  D:00B8H         PUBLIC        IP
  D:0098H         PUBLIC        SCON
  D:0088H         PUBLIC        TCON
  D:00C8H         PUBLIC        T2CON
  D:00D0H         PUBLIC        PSW
  -------         ENDMOD        PHY_ATOM12

  -------         MODULE        PHY_TESLA
  C:0000H         SYMBOL        _ICE_DUMMY_
  D:0090H         PUBLIC        P1
  D:00B0H         PUBLIC        P3
  D:00A8H         PUBLIC        IE
  D:00B8H         PUBLIC        IP
  D:0098H         PUBLIC        SCON
  D:0088H         PUBLIC        TCON
  D:00C8H         PUBLIC        T2CON
  D:00D0H         PUBLIC        PSW
  -------         ENDMOD        PHY_TESLA

  -------         MODULE        PHY_ELISE
  C:0000H         SYMBOL        _ICE_DUMMY_
  D:0090H         PUBLIC        P1
  D:00B0H         PUBLIC        P3
  D:00A8H         PUBLIC        IE
  D:00B8H         PUBLIC        IP
  D:0098H         PUBLIC        SCON
BL51 BANKED LINKER/LOCATER V6.22.2.0                                                  11/30/2021  16:22:28  PAGE 128


  D:0088H         PUBLIC        TCON
  D:00C8H         PUBLIC        T2CON
  D:00D0H         PUBLIC        PSW
  -------         ENDMOD        PHY_ELISE

  -------         MODULE        PHY_SPYDER
  C:0000H         SYMBOL        _ICE_DUMMY_
  D:0090H         PUBLIC        P1
  D:00B0H         PUBLIC        P3
  D:00A8H         PUBLIC        IE
  D:00B8H         PUBLIC        IP
  D:0098H         PUBLIC        SCON
  D:0088H         PUBLIC        TCON
  D:00C8H         PUBLIC        T2CON
  D:00D0H         PUBLIC        PSW
  -------         ENDMOD        PHY_SPYDER

  -------         MODULE        PHY_QUATTRO
  C:0000H         SYMBOL        _ICE_DUMMY_
  D:0090H         PUBLIC        P1
  D:00B0H         PUBLIC        P3
  D:00A8H         PUBLIC        IE
  D:00B8H         PUBLIC        IP
  D:0098H         PUBLIC        SCON
  D:0088H         PUBLIC        TCON
  D:00C8H         PUBLIC        T2CON
  D:00D0H         PUBLIC        PSW
  -------         ENDMOD        PHY_QUATTRO

  -------         MODULE        PHY_ENZO
  C:0000H         SYMBOL        _ICE_DUMMY_
  D:0090H         PUBLIC        P1
  D:00B0H         PUBLIC        P3
  D:00A8H         PUBLIC        IE
  D:00B8H         PUBLIC        IP
  D:0098H         PUBLIC        SCON
  D:0088H         PUBLIC        TCON
  D:00C8H         PUBLIC        T2CON
  D:00D0H         PUBLIC        PSW
  -------         ENDMOD        PHY_ENZO

  -------         MODULE        PHY_COBRA
  C:0000H         SYMBOL        _ICE_DUMMY_
  D:0090H         PUBLIC        P1
  D:00B0H         PUBLIC        P3
  D:00A8H         PUBLIC        IE
  D:00B8H         PUBLIC        IP
  D:0098H         PUBLIC        SCON
  D:0088H         PUBLIC        TCON
  D:00C8H         PUBLIC        T2CON
  D:00D0H         PUBLIC        PSW
  -------         ENDMOD        PHY_COBRA

  -------         MODULE        VERSION
  C:0000H         SYMBOL        _ICE_DUMMY_
  X:E4B4H         PUBLIC        SW_COMPILE_DATE
  X:E4B6H         PUBLIC        SW_VERSION
BL51 BANKED LINKER/LOCATER V6.22.2.0                                                  11/30/2021  16:22:28  PAGE 129


  X:E4B8H         PUBLIC        CODE_REVISION
  -------         ENDMOD        VERSION

  -------         MODULE        HWPORT
  C:0000H         SYMBOL        _ICE_DUMMY_
  D:0090H         PUBLIC        P1
  D:00B0H         PUBLIC        P3
  B:00A8H.7       PUBLIC        EA
  D:00A8H         PUBLIC        IE
  D:00B8H         PUBLIC        IP
  C:9185H         PUBLIC        _uport2cport
  C:9471H         PUBLIC        _cport2uport
  C:7172H         PUBLIC        phy_hw_init
  D:0098H         PUBLIC        SCON
  D:0088H         PUBLIC        TCON
  C:96D9H         PUBLIC        gpio_init
  C:88E3H         PUBLIC        _get_mac_addr
  C:9521H         SYMBOL        port2int_tab
  C:9516H         SYMBOL        port2ext_tab
  D:00C8H         PUBLIC        T2CON
  C:7746H         PUBLIC        get_hw_version
  D:00D0H         PUBLIC        PSW
  C:9680H         SYMBOL        Com0019
  C:9680H         SYMBOL        L?0026
  C:9680H         SYMBOL        L?0027
  -------         PROC          COM0019
  -------         ENDPROC       COM0019
  -------         PROC          _CPORT2UPORT
  D:0007H         SYMBOL        chip_port
  C:9471H         LINE#         96
  C:9471H         LINE#         97
  C:9471H         LINE#         98
  C:947BH         LINE#         99
  C:9482H         LINE#         100
  C:9482H         LINE#         107
  C:9484H         LINE#         108
  -------         ENDPROC       _CPORT2UPORT
  -------         PROC          _UPORT2CPORT
  D:0007H         SYMBOL        uport
  C:9185H         LINE#         111
  C:9185H         LINE#         112
  C:9185H         LINE#         113
  C:919AH         LINE#         114
  C:91A1H         LINE#         115
  C:91A1H         LINE#         122
  C:91A3H         LINE#         123
  -------         ENDPROC       _UPORT2CPORT
  -------         PROC          GET_HW_VERSION
  -------         DO            
  X:E4C5H         SYMBOL        hw_ver
  -------         DO            
  X:E2D1H         SYMBOL        mask
  X:E2D5H         SYMBOL        orig_reg_val
  X:E2D9H         SYMBOL        reg_val
  X:E2DDH         SYMBOL        busy_loop
  -------         ENDDO         
  -------         ENDDO         
BL51 BANKED LINKER/LOCATER V6.22.2.0                                                  11/30/2021  16:22:28  PAGE 130


  C:7746H         LINE#         126
  C:7746H         LINE#         127
  C:7746H         LINE#         145
  C:774FH         LINE#         146
  C:7759H         LINE#         148
  C:7763H         LINE#         149
  C:7771H         LINE#         150
  C:7784H         LINE#         151
  C:7792H         LINE#         152
  C:77A2H         LINE#         153
  C:77B3H         LINE#         154
  C:77DCH         LINE#         155
  C:77DCH         LINE#         156
  C:77E1H         LINE#         157
  -------         ENDPROC       GET_HW_VERSION
  -------         PROC          _GET_MAC_ADDR
  X:E324H         SYMBOL        port_no
  X:E325H         SYMBOL        mac_addr
  C:88E3H         LINE#         160
  C:88ECH         LINE#         161
  C:88ECH         LINE#         166
  C:88F9H         LINE#         168
  C:8901H         LINE#         170
  C:8901H         LINE#         172
  C:8904H         LINE#         174
  C:8915H         LINE#         175
  C:891FH         LINE#         176
  C:8926H         LINE#         177
  C:8926H         LINE#         178
  C:8926H         LINE#         179
  -------         ENDPROC       _GET_MAC_ADDR
  C:7202H         SYMBOL        L?0028
  C:7213H         SYMBOL        L?0029
  -------         PROC          PHY_HW_INIT
  -------         DO            
  X:E2CAH         SYMBOL        cmd
  X:E2CEH         SYMBOL        phy_mask
  -------         ENDDO         
  C:7172H         LINE#         182
  C:7172H         LINE#         183
  C:7172H         LINE#         187
  C:7178H         LINE#         220
  C:718CH         LINE#         223
  C:7191H         LINE#         224
  C:7191H         LINE#         225
  C:719BH         LINE#         226
  C:71B1H         LINE#         228
  C:71B6H         LINE#         233
  C:71B6H         LINE#         235
  C:71BBH         LINE#         241
  C:71F7H         LINE#         243
  C:7201H         LINE#         246
  C:7201H         LINE#         250
  C:7201H         LINE#         271
  -------         ENDPROC       PHY_HW_INIT
  -------         PROC          GPIO_INIT
  C:96D9H         LINE#         274
BL51 BANKED LINKER/LOCATER V6.22.2.0                                                  11/30/2021  16:22:28  PAGE 131


  C:96D9H         LINE#         275
  C:96D9H         LINE#         276
  -------         ENDPROC       GPIO_INIT
  -------         ENDMOD        HWPORT

  -------         MODULE        SPIFLASH
  C:0000H         SYMBOL        _ICE_DUMMY_
  D:0090H         PUBLIC        P1
  D:00B0H         PUBLIC        P3
  D:00A8H         PUBLIC        IE
  D:00B8H         PUBLIC        IP
  C:9687H         PUBLIC        _flash_read_mac_addr
  C:852CH         PUBLIC        _flash_write_mac_addr
  D:0098H         PUBLIC        SCON
  D:0088H         PUBLIC        TCON
  X:E3EFH         PUBLIC        mac_addr_0
  X:E3F5H         SYMBOL        cur_flash_info
  D:0057H         SYMBOL        simaster_shadow
  X:E419H         PUBLIC        mac_addr_ff
  X:E41FH         SYMBOL        config_shadow
  D:00C8H         PUBLIC        T2CON
  C:93F6H         PUBLIC        flash_load_config
  X:E428H         PUBLIC        spiflash_mac_addr
  D:00D0H         PUBLIC        PSW
  -------         PROC          FLASH_LOAD_CONFIG
  -------         DO            
  X:E2CAH         SYMBOL        conf_p
  -------         ENDDO         
  C:93F6H         LINE#         806
  C:93F6H         LINE#         814
  C:93F6H         LINE#         816
  C:9400H         LINE#         839
  -------         ENDPROC       FLASH_LOAD_CONFIG
  -------         PROC          _FLASH_READ_MAC_ADDR
  D:0006H         SYMBOL        mac_addr
  C:9687H         LINE#         843
  C:9687H         LINE#         844
  C:9687H         LINE#         845
  -------         ENDPROC       _FLASH_READ_MAC_ADDR
  C:857EH         SYMBOL        L?0005
  -------         PROC          _FLASH_WRITE_MAC_ADDR
  X:E2D2H         SYMBOL        mac_addr
  -------         DO            
  X:E2D4H         SYMBOL        mac_tab_entry
  -------         ENDDO         
  C:852CH         LINE#         850
  C:8534H         LINE#         851
  C:8534H         LINE#         857
  C:853CH         LINE#         858
  C:853FH         LINE#         859
  C:853FH         LINE#         863
  C:8546H         LINE#         864
  C:8550H         LINE#         865
  C:855BH         LINE#         866
  C:8564H         LINE#         869
  C:856BH         LINE#         870
  C:8574H         LINE#         874
BL51 BANKED LINKER/LOCATER V6.22.2.0                                                  11/30/2021  16:22:28  PAGE 132


  C:857BH         LINE#         876
  C:857DH         LINE#         877
  -------         ENDPROC       _FLASH_WRITE_MAC_ADDR
  -------         ENDMOD        SPIFLASH

  -------         MODULE        MISC1
  C:0000H         SYMBOL        _ICE_DUMMY_
  D:0090H         PUBLIC        P1
  D:00B0H         PUBLIC        P3
  C:909DH         PUBLIC        _conv_to_upper_case
  D:00A8H         PUBLIC        IE
  C:94ABH         PUBLIC        _hex_to_ascii_nib
  C:8F9BH         PUBLIC        _ascii_to_hex_nib
  D:00B8H         PUBLIC        IP
  D:0098H         PUBLIC        SCON
  D:0088H         PUBLIC        TCON
  D:00C8H         PUBLIC        T2CON
  D:00D0H         PUBLIC        PSW
  -------         PROC          _ASCII_TO_HEX_NIB
  D:0007H         SYMBOL        ch
  C:8F9BH         LINE#         71
  C:8F9BH         LINE#         79
  C:8F9BH         LINE#         80
  C:8F9EH         LINE#         82
  C:8FA9H         LINE#         83
  C:8FAFH         LINE#         84
  C:8FBAH         LINE#         85
  C:8FBFH         LINE#         86
  C:8FBFH         LINE#         87
  C:8FC1H         LINE#         88
  C:8FC1H         LINE#         89
  -------         ENDPROC       _ASCII_TO_HEX_NIB
  -------         PROC          _HEX_TO_ASCII_NIB
  D:0007H         SYMBOL        nib
  C:94ABH         LINE#         92
  C:94ABH         LINE#         100
  C:94ABH         LINE#         101
  C:94B6H         LINE#         102
  C:94BAH         LINE#         103
  C:94BAH         LINE#         104
  C:94BDH         LINE#         105
  C:94BDH         LINE#         106
  -------         ENDPROC       _HEX_TO_ASCII_NIB
  -------         PROC          _CONV_TO_UPPER_CASE
  D:0007H         SYMBOL        ch
  C:909DH         LINE#         109
  C:909DH         LINE#         117
  C:909DH         LINE#         118
  C:90BAH         LINE#         119
  C:90BFH         LINE#         120
  C:90BFH         LINE#         121
  C:90BFH         LINE#         122
  C:90BFH         LINE#         123
  -------         ENDPROC       _CONV_TO_UPPER_CASE
  -------         ENDMOD        MISC1

  -------         MODULE        MISCUTIL2
BL51 BANKED LINKER/LOCATER V6.22.2.0                                                  11/30/2021  16:22:28  PAGE 133


  C:536BH         SEGMENT       PROG
  C:53CDH         PUBLIC        _BIT_MASK_16
  C:539FH         PUBLIC        _BIT_MASK_32
  C:53E0H         PUBLIC        _BIT_MASK_8
  C:538EH         PUBLIC        _BYTES2USHORT
  C:5392H         PUBLIC        _HIGH_W
  C:5456H         PUBLIC        _TEST_BIT_16
  C:546AH         PUBLIC        _TEST_BIT_32
  C:5439H         PUBLIC        _TEST_BIT_8
  C:5391H         PUBLIC        _USHORTS2ULONG
  C:540FH         PUBLIC        _WRITE_BIT_16
  C:5423H         PUBLIC        _WRITE_BIT_32
  C:53E7H         PUBLIC        _WRITE_BIT_8
  B:00D0H.6       SYMBOL        AC
  D:00E0H         SYMBOL        ACC
  D:00F0H         SYMBOL        B
  C:5397H         SYMBOL        BIT_TABLE
  B:00C8H.0       SYMBOL        CP_RL2
  B:00D0H.7       SYMBOL        CY
  B:00C8H.1       SYMBOL        C_T2
  D:0083H         SYMBOL        DPH
  D:0082H         SYMBOL        DPL
  B:00A8H.7       SYMBOL        EA
  B:00A8H.4       SYMBOL        ES
  B:00A8H.1       SYMBOL        ET0
  B:00A8H.3       SYMBOL        ET1
  B:00A8H.5       SYMBOL        ET2
  B:00A8H.0       SYMBOL        EX0
  B:00A8H.2       SYMBOL        EX1
  B:00C8H.3       SYMBOL        EXEN2
  B:00C8H.6       SYMBOL        EXF2
  B:00D0H.5       SYMBOL        F0
  D:00A8H         SYMBOL        IE
  B:0088H.1       SYMBOL        IE0
  B:0088H.3       SYMBOL        IE1
  B:00B0H.2       SYMBOL        INT0
  B:00B0H.3       SYMBOL        INT1
  D:00B8H         SYMBOL        IP
  B:0088H.0       SYMBOL        IT0
  B:0088H.2       SYMBOL        IT1
  C:53AFH         SYMBOL        L1_1
  C:53B4H         SYMBOL        L1_2
  C:53B9H         SYMBOL        L1_3
  C:53BEH         SYMBOL        L1_4
  C:53C3H         SYMBOL        L1_5
  C:53C8H         SYMBOL        L1_6
  C:53D6H         SYMBOL        L2_1
  C:53DBH         SYMBOL        L2_2
  C:53FDH         SYMBOL        L3_1
  C:53FEH         SYMBOL        L3_2
  C:5400H         SYMBOL        L3_3
  C:540CH         SYMBOL        L3_4
  C:540DH         SYMBOL        L3_5
  C:540EH         SYMBOL        L3_6
  C:5449H         SYMBOL        L4_1
  C:544FH         SYMBOL        L4_2
  C:5454H         SYMBOL        L4_3
BL51 BANKED LINKER/LOCATER V6.22.2.0                                                  11/30/2021  16:22:28  PAGE 134


  C:5412H         SYMBOL        L5_1
  C:541BH         SYMBOL        L5_2
  C:541FH         SYMBOL        L5_3
  C:5459H         SYMBOL        L6_1
  C:5462H         SYMBOL        L6_2
  C:5466H         SYMBOL        L6_3
  N:0000H         SYMBOL        MISCUTIL2
  B:00D0H.2       SYMBOL        OV
  B:00D0H.0       SYMBOL        P
  D:0080H         SYMBOL        P0
  D:0090H         SYMBOL        P1
  D:00A0H         SYMBOL        P2
  D:00B0H         SYMBOL        P3
  D:0087H         SYMBOL        PCON
  B:00B8H.4       SYMBOL        PS
  D:00D0H         SYMBOL        PSW
  B:00B8H.1       SYMBOL        PT0
  B:00B8H.3       SYMBOL        PT1
  B:00B8H.5       SYMBOL        PT2
  B:00B8H.0       SYMBOL        PX0
  B:00B8H.2       SYMBOL        PX1
  B:0098H.2       SYMBOL        RB8
  D:00CBH         SYMBOL        RCAP2H
  D:00CAH         SYMBOL        RCAP2L
  B:00C8H.5       SYMBOL        RCLK
  B:00B0H.7       SYMBOL        RD
  B:0098H.4       SYMBOL        REN
  B:0098H.0       SYMBOL        RI
  B:00D0H.3       SYMBOL        RS0
  B:00D0H.4       SYMBOL        RS1
  B:00B0H.0       SYMBOL        RXD
  D:0099H         SYMBOL        SBUF
  D:0098H         SYMBOL        SCON
  B:0098H.7       SYMBOL        SM0
  B:0098H.6       SYMBOL        SM1
  B:0098H.5       SYMBOL        SM2
  D:0081H         SYMBOL        SP
  B:00B0H.4       SYMBOL        T0
  B:00B0H.5       SYMBOL        T1
  B:0090H.0       SYMBOL        T2
  D:00C8H         SYMBOL        T2CON
  B:0090H.1       SYMBOL        T2EX
  B:0098H.3       SYMBOL        TB8
  B:00C8H.4       SYMBOL        TCLK
  D:0088H         SYMBOL        TCON
  B:0088H.5       SYMBOL        TF0
  B:0088H.7       SYMBOL        TF1
  B:00C8H.7       SYMBOL        TF2
  D:008CH         SYMBOL        TH0
  D:008DH         SYMBOL        TH1
  D:00CDH         SYMBOL        TH2
  B:0098H.1       SYMBOL        TI
  D:008AH         SYMBOL        TL0
  D:008BH         SYMBOL        TL1
  D:00CCH         SYMBOL        TL2
  D:0089H         SYMBOL        TMOD
  B:0088H.4       SYMBOL        TR0
BL51 BANKED LINKER/LOCATER V6.22.2.0                                                  11/30/2021  16:22:28  PAGE 135


  B:0088H.6       SYMBOL        TR1
  B:00C8H.2       SYMBOL        TR2
  B:00B0H.1       SYMBOL        TXD
  B:00B0H.6       SYMBOL        WR
  C:538EH         LINE#         61
  C:538FH         LINE#         62
  C:5390H         LINE#         63
  C:5391H         LINE#         80
  C:5392H         LINE#         93
  C:5393H         LINE#         94
  C:5394H         LINE#         95
  C:5395H         LINE#         96
  C:5396H         LINE#         98
  C:539FH         LINE#         123
  C:53A0H         LINE#         124
  C:53A2H         LINE#         127
  C:53A3H         LINE#         128
  C:53A4H         LINE#         129
  C:53A5H         LINE#         130
  C:53A6H         LINE#         131
  C:53A7H         LINE#         133
  C:53A9H         LINE#         134
  C:53ACH         LINE#         137
  C:53AFH         LINE#         138
  C:53B1H         LINE#         140
  C:53B2H         LINE#         141
  C:53B3H         LINE#         142
  C:53B4H         LINE#         145
  C:53B6H         LINE#         146
  C:53B9H         LINE#         147
  C:53BBH         LINE#         149
  C:53BCH         LINE#         150
  C:53BDH         LINE#         151
  C:53BEH         LINE#         154
  C:53C0H         LINE#         155
  C:53C3H         LINE#         156
  C:53C5H         LINE#         158
  C:53C6H         LINE#         159
  C:53C7H         LINE#         160
  C:53C8H         LINE#         163
  C:53CAH         LINE#         164
  C:53CBH         LINE#         165
  C:53CCH         LINE#         166
  C:53CDH         LINE#         179
  C:53CEH         LINE#         180
  C:53CFH         LINE#         181
  C:53D0H         LINE#         182
  C:53D3H         LINE#         185
  C:53D6H         LINE#         186
  C:53D8H         LINE#         188
  C:53D9H         LINE#         189
  C:53DAH         LINE#         190
  C:53DBH         LINE#         193
  C:53DDH         LINE#         194
  C:53DEH         LINE#         195
  C:53DFH         LINE#         196
  C:53E0H         LINE#         210
BL51 BANKED LINKER/LOCATER V6.22.2.0                                                  11/30/2021  16:22:28  PAGE 136


  C:53E1H         LINE#         211
  C:53E4H         LINE#         212
  C:53E5H         LINE#         213
  C:53E6H         LINE#         214
  C:53E7H         LINE#         231
  C:53EAH         LINE#         232
  C:53EBH         LINE#         233
  C:53ECH         LINE#         234
  C:53EDH         LINE#         235
  C:53EEH         LINE#         236
  C:53EFH         LINE#         240
  C:53F2H         LINE#         244
  C:53F4H         LINE#         245
  C:53F6H         LINE#         246
  C:53F7H         LINE#         247
  C:53F8H         LINE#         248
  C:53FBH         LINE#         249
  C:53FDH         LINE#         250
  C:53FEH         LINE#         251
  C:53FFH         LINE#         252
  C:5400H         LINE#         256
  C:5403H         LINE#         260
  C:5404H         LINE#         261
  C:5405H         LINE#         262
  C:5406H         LINE#         263
  C:5407H         LINE#         264
  C:540AH         LINE#         265
  C:540CH         LINE#         266
  C:540DH         LINE#         267
  C:540EH         LINE#         268
  C:540FH         LINE#         285
  C:5412H         LINE#         286
  C:5414H         LINE#         291
  C:5415H         LINE#         292
  C:5416H         LINE#         293
  C:5418H         LINE#         294
  C:5419H         LINE#         295
  C:541BH         LINE#         300
  C:541DH         LINE#         301
  C:541EH         LINE#         302
  C:541FH         LINE#         306
  C:5422H         LINE#         307
  C:5423H         LINE#         324
  C:5425H         LINE#         325
  C:5426H         LINE#         326
  C:5427H         LINE#         327
  C:5428H         LINE#         328
  C:5429H         LINE#         329
  C:542AH         LINE#         330
  C:542CH         LINE#         334
  C:542DH         LINE#         335
  C:542EH         LINE#         336
  C:542FH         LINE#         337
  C:5430H         LINE#         338
  C:5431H         LINE#         342
  C:5433H         LINE#         343
  C:5434H         LINE#         344
BL51 BANKED LINKER/LOCATER V6.22.2.0                                                  11/30/2021  16:22:28  PAGE 137


  C:5435H         LINE#         348
  C:5438H         LINE#         349
  C:5439H         LINE#         364
  C:543CH         LINE#         365
  C:543DH         LINE#         366
  C:543EH         LINE#         367
  C:543FH         LINE#         371
  C:5442H         LINE#         375
  C:5444H         LINE#         376
  C:5446H         LINE#         377
  C:5447H         LINE#         378
  C:5449H         LINE#         382
  C:544CH         LINE#         383
  C:544DH         LINE#         384
  C:544EH         LINE#         385
  C:544FH         LINE#         389
  C:5450H         LINE#         390
  C:5452H         LINE#         391
  C:5453H         LINE#         392
  C:5454H         LINE#         394
  C:5455H         LINE#         395
  C:5456H         LINE#         410
  C:5459H         LINE#         411
  C:545BH         LINE#         416
  C:545CH         LINE#         417
  C:545DH         LINE#         418
  C:545FH         LINE#         419
  C:5460H         LINE#         420
  C:5462H         LINE#         425
  C:5464H         LINE#         426
  C:5465H         LINE#         427
  C:5466H         LINE#         431
  C:5469H         LINE#         433
  C:546AH         LINE#         448
  C:546CH         LINE#         449
  C:546DH         LINE#         450
  C:546EH         LINE#         451
  C:546FH         LINE#         452
  C:5470H         LINE#         453
  C:5471H         LINE#         454
  C:5473H         LINE#         458
  C:5474H         LINE#         459
  C:5475H         LINE#         460
  C:5476H         LINE#         461
  C:5477H         LINE#         462
  C:5478H         LINE#         466
  C:547AH         LINE#         467
  C:547BH         LINE#         468
  C:547CH         LINE#         472
  C:547FH         LINE#         474
  -------         ENDMOD        MISCUTIL2

  -------         MODULE        MISCUTIL3
  C:536BH         SEGMENT       PROG
  C:54A9H         PUBLIC        _IP_CMP
  C:54C6H         PUBLIC        _IP_COPY
  C:5480H         PUBLIC        _MAC_CMP
BL51 BANKED LINKER/LOCATER V6.22.2.0                                                  11/30/2021  16:22:28  PAGE 138


  C:54ADH         PUBLIC        _MAC_COPY
  C:54CAH         PUBLIC        _MEM_CMP
  C:54CEH         PUBLIC        _MEM_COPY
  C:54D2H         PUBLIC        _MEM_SET
  B:00D0H.6       SYMBOL        AC
  D:00E0H         SYMBOL        ACC
  D:00F0H         SYMBOL        B
  B:00C8H.0       SYMBOL        CP_RL2
  B:00D0H.7       SYMBOL        CY
  B:00C8H.1       SYMBOL        C_T2
  D:0083H         SYMBOL        DPH
  D:0082H         SYMBOL        DPL
  B:00A8H.7       SYMBOL        EA
  B:00A8H.4       SYMBOL        ES
  B:00A8H.1       SYMBOL        ET0
  B:00A8H.3       SYMBOL        ET1
  B:00A8H.5       SYMBOL        ET2
  B:00A8H.0       SYMBOL        EX0
  B:00A8H.2       SYMBOL        EX1
  B:00C8H.3       SYMBOL        EXEN2
  B:00C8H.6       SYMBOL        EXF2
  B:00D0H.5       SYMBOL        F0
  D:00A8H         SYMBOL        IE
  B:0088H.1       SYMBOL        IE0
  B:0088H.3       SYMBOL        IE1
  B:00B0H.2       SYMBOL        INT0
  B:00B0H.3       SYMBOL        INT1
  D:00B8H         SYMBOL        IP
  B:0088H.0       SYMBOL        IT0
  B:0088H.2       SYMBOL        IT1
  C:5482H         SYMBOL        L1_1
  C:54A1H         SYMBOL        L1_2
  C:54A6H         SYMBOL        L1_3
  C:54AFH         SYMBOL        L3_1
  C:54D5H         SYMBOL        L4_1
  N:0000H         SYMBOL        MISCUTIL3
  B:00D0H.2       SYMBOL        OV
  B:00D0H.0       SYMBOL        P
  D:0080H         SYMBOL        P0
  D:0090H         SYMBOL        P1
  D:00A0H         SYMBOL        P2
  D:00B0H         SYMBOL        P3
  D:0087H         SYMBOL        PCON
  B:00B8H.4       SYMBOL        PS
  D:00D0H         SYMBOL        PSW
  B:00B8H.1       SYMBOL        PT0
  B:00B8H.3       SYMBOL        PT1
  B:00B8H.5       SYMBOL        PT2
  B:00B8H.0       SYMBOL        PX0
  B:00B8H.2       SYMBOL        PX1
  B:0098H.2       SYMBOL        RB8
  D:00CBH         SYMBOL        RCAP2H
  D:00CAH         SYMBOL        RCAP2L
  B:00C8H.5       SYMBOL        RCLK
  B:00B0H.7       SYMBOL        RD
  B:0098H.4       SYMBOL        REN
  B:0098H.0       SYMBOL        RI
BL51 BANKED LINKER/LOCATER V6.22.2.0                                                  11/30/2021  16:22:28  PAGE 139


  B:00D0H.3       SYMBOL        RS0
  B:00D0H.4       SYMBOL        RS1
  B:00B0H.0       SYMBOL        RXD
  D:0099H         SYMBOL        SBUF
  D:0098H         SYMBOL        SCON
  B:0098H.7       SYMBOL        SM0
  B:0098H.6       SYMBOL        SM1
  B:0098H.5       SYMBOL        SM2
  D:0081H         SYMBOL        SP
  B:00B0H.4       SYMBOL        T0
  B:00B0H.5       SYMBOL        T1
  B:0090H.0       SYMBOL        T2
  D:00C8H         SYMBOL        T2CON
  B:0090H.1       SYMBOL        T2EX
  B:0098H.3       SYMBOL        TB8
  B:00C8H.4       SYMBOL        TCLK
  D:0088H         SYMBOL        TCON
  B:0088H.5       SYMBOL        TF0
  B:0088H.7       SYMBOL        TF1
  B:00C8H.7       SYMBOL        TF2
  D:008CH         SYMBOL        TH0
  D:008DH         SYMBOL        TH1
  D:00CDH         SYMBOL        TH2
  B:0098H.1       SYMBOL        TI
  D:008AH         SYMBOL        TL0
  D:008BH         SYMBOL        TL1
  D:00CCH         SYMBOL        TL2
  D:0089H         SYMBOL        TMOD
  B:0088H.4       SYMBOL        TR0
  B:0088H.6       SYMBOL        TR1
  B:00C8H.2       SYMBOL        TR2
  B:00B0H.1       SYMBOL        TXD
  B:00B0H.6       SYMBOL        WR
  C:5480H         LINE#         56
  C:5482H         LINE#         58
  C:5484H         LINE#         59
  C:5486H         LINE#         60
  C:5487H         LINE#         61
  C:5488H         LINE#         62
  C:5489H         LINE#         63
  C:548BH         LINE#         64
  C:548DH         LINE#         66
  C:548FH         LINE#         67
  C:5491H         LINE#         68
  C:5492H         LINE#         69
  C:5493H         LINE#         70
  C:5495H         LINE#         71
  C:5497H         LINE#         73
  C:5498H         LINE#         74
  C:5499H         LINE#         75
  C:549AH         LINE#         76
  C:549CH         LINE#         78
  C:549EH         LINE#         79
  C:54A0H         LINE#         80
  C:54A1H         LINE#         82
  C:54A3H         LINE#         83
  C:54A5H         LINE#         84
BL51 BANKED LINKER/LOCATER V6.22.2.0                                                  11/30/2021  16:22:28  PAGE 140


  C:54A6H         LINE#         85
  C:54A8H         LINE#         86
  C:54A9H         LINE#         101
  C:54ABH         LINE#         102
  C:54ADH         LINE#         115
  C:54AFH         LINE#         117
  C:54B1H         LINE#         118
  C:54B3H         LINE#         119
  C:54B4H         LINE#         120
  C:54B5H         LINE#         121
  C:54B7H         LINE#         122
  C:54B9H         LINE#         124
  C:54BBH         LINE#         125
  C:54BDH         LINE#         126
  C:54BEH         LINE#         127
  C:54BFH         LINE#         128
  C:54C1H         LINE#         129
  C:54C3H         LINE#         131
  C:54C5H         LINE#         132
  C:54C6H         LINE#         145
  C:54C8H         LINE#         146
  C:54CAH         LINE#         159
  C:54CBH         LINE#         160
  C:54CCH         LINE#         161
  C:54CEH         LINE#         174
  C:54CFH         LINE#         175
  C:54D0H         LINE#         176
  C:54D2H         LINE#         189
  C:54D3H         LINE#         190
  C:54D4H         LINE#         191
  C:54D5H         LINE#         192
  C:54D7H         LINE#         193
  C:54D9H         LINE#         194
  C:54DAH         LINE#         195
  C:54DBH         LINE#         196
  C:54DDH         LINE#         197
  C:54DFH         LINE#         199
  C:54E1H         LINE#         200
  -------         ENDMOD        MISCUTIL3

  -------         MODULE        LLDP
  C:0000H         SYMBOL        _ICE_DUMMY_
  D:0090H         PUBLIC        P1
  D:00B0H         PUBLIC        P3
  D:00A8H         PUBLIC        IE
  D:00B8H         PUBLIC        IP
  D:0098H         PUBLIC        SCON
  D:0088H         PUBLIC        TCON
  D:00C8H         PUBLIC        T2CON
  D:00D0H         PUBLIC        PSW
  -------         ENDMOD        LLDP

  -------         MODULE        LLDP_OS
  C:0000H         SYMBOL        _ICE_DUMMY_
  D:0090H         PUBLIC        P1
  D:00B0H         PUBLIC        P3
  D:00A8H         PUBLIC        IE
BL51 BANKED LINKER/LOCATER V6.22.2.0                                                  11/30/2021  16:22:28  PAGE 141


  D:00B8H         PUBLIC        IP
  D:0098H         PUBLIC        SCON
  D:0088H         PUBLIC        TCON
  D:00C8H         PUBLIC        T2CON
  D:00D0H         PUBLIC        PSW
  -------         ENDMOD        LLDP_OS

  -------         MODULE        LLDP_REMOTE
  C:0000H         SYMBOL        _ICE_DUMMY_
  D:0090H         PUBLIC        P1
  D:00B0H         PUBLIC        P3
  D:00A8H         PUBLIC        IE
  D:00B8H         PUBLIC        IP
  D:0098H         PUBLIC        SCON
  D:0088H         PUBLIC        TCON
  D:00C8H         PUBLIC        T2CON
  D:00D0H         PUBLIC        PSW
  -------         ENDMOD        LLDP_REMOTE

  -------         MODULE        LLDP_SM
  C:0000H         SYMBOL        _ICE_DUMMY_
  D:0090H         PUBLIC        P1
  D:00B0H         PUBLIC        P3
  D:00A8H         PUBLIC        IE
  D:00B8H         PUBLIC        IP
  D:0098H         PUBLIC        SCON
  D:0088H         PUBLIC        TCON
  D:00C8H         PUBLIC        T2CON
  D:00D0H         PUBLIC        PSW
  -------         ENDMOD        LLDP_SM

  -------         MODULE        LLDP_TLV
  C:0000H         SYMBOL        _ICE_DUMMY_
  D:0090H         PUBLIC        P1
  D:00B0H         PUBLIC        P3
  D:00A8H         PUBLIC        IE
  D:00B8H         PUBLIC        IP
  D:0098H         PUBLIC        SCON
  D:0088H         PUBLIC        TCON
  D:00C8H         PUBLIC        T2CON
  D:00D0H         PUBLIC        PSW
  -------         ENDMOD        LLDP_TLV

  -------         MODULE        MIB_COMMON
  C:0000H         SYMBOL        _ICE_DUMMY_
  D:0090H         PUBLIC        P1
  D:00B0H         PUBLIC        P3
  D:00A8H         PUBLIC        IE
  D:00B8H         PUBLIC        IP
  D:0098H         PUBLIC        SCON
  D:0088H         PUBLIC        TCON
  D:00C8H         PUBLIC        T2CON
  D:00D0H         PUBLIC        PSW
  -------         ENDMOD        MIB_COMMON

  -------         MODULE        VTSS_LACP
  C:0000H         SYMBOL        _ICE_DUMMY_
BL51 BANKED LINKER/LOCATER V6.22.2.0                                                  11/30/2021  16:22:28  PAGE 142


  D:0090H         PUBLIC        P1
  D:00B0H         PUBLIC        P3
  D:00A8H         PUBLIC        IE
  D:00B8H         PUBLIC        IP
  D:0098H         PUBLIC        SCON
  D:0088H         PUBLIC        TCON
  D:00C8H         PUBLIC        T2CON
  D:00D0H         PUBLIC        PSW
  -------         ENDMOD        VTSS_LACP

  -------         MODULE        EEE
  C:0000H         SYMBOL        _ICE_DUMMY_
  D:0090H         PUBLIC        P1
  D:00B0H         PUBLIC        P3
  D:00A8H         PUBLIC        IE
  D:00B8H         PUBLIC        IP
  D:0098H         PUBLIC        SCON
  D:0088H         PUBLIC        TCON
  D:00C8H         PUBLIC        T2CON
  D:00D0H         PUBLIC        PSW
  -------         ENDMOD        EEE

  -------         MODULE        EEE_BASE
  C:0000H         SYMBOL        _ICE_DUMMY_
  D:0090H         PUBLIC        P1
  D:00B0H         PUBLIC        P3
  D:00A8H         PUBLIC        IE
  D:00B8H         PUBLIC        IP
  D:0098H         PUBLIC        SCON
  D:0088H         PUBLIC        TCON
  D:00C8H         PUBLIC        T2CON
  D:00D0H         PUBLIC        PSW
  -------         ENDMOD        EEE_BASE

  -------         MODULE        FAN
  C:0000H         SYMBOL        _ICE_DUMMY_
  -------         ENDMOD        FAN

  -------         MODULE        LEDTSK
  C:0000H         SYMBOL        _ICE_DUMMY_
  C:8085H         SYMBOL        _led_update_port_by_tower_mode
  D:0090H         PUBLIC        P1
  D:00B0H         PUBLIC        P3
  X:E464H         SYMBOL        curr_led_port_event
  C:968EH         PUBLIC        led_refresh
  D:00A8H         PUBLIC        IE
  D:00B8H         PUBLIC        IP
  C:9695H         PUBLIC        _led_update_system
  D:0098H         PUBLIC        SCON
  D:0088H         PUBLIC        TCON
  C:9237H         PUBLIC        led_1s_timer
  X:E46AH         SYMBOL        led_mode_timer
  X:E46BH         SYMBOL        is_refresh_led
  C:7376H         SYMBOL        __led_mode_set
  C:9146H         PUBLIC        led_init
  X:E46CH         SYMBOL        curr_tower_mode
  X:E46DH         SYMBOL        led_port_event
BL51 BANKED LINKER/LOCATER V6.22.2.0                                                  11/30/2021  16:22:28  PAGE 143


  D:00C8H         PUBLIC        T2CON
  C:940BH         PUBLIC        led_tsk
  D:00D0H         PUBLIC        PSW
  C:9651H         SYMBOL        Com002A
  C:9651H         SYMBOL        L?0043
  -------         PROC          COM002A
  -------         ENDPROC       COM002A
  -------         PROC          __LED_MODE_SET
  X:E2CDH         SYMBOL        sgpio_no
  D:0005H         SYMBOL        mode
  -------         DO            
  X:E2CEH         SYMBOL        sgpio_bit_0_mode
  X:E2CFH         SYMBOL        sgpio_bit_1_mode
  B:0020H.5       SYMBOL        valid_mode
  -------         ENDDO         
  C:7376H         LINE#         101
  C:737BH         LINE#         102
  C:737BH         LINE#         104
  C:737DH         LINE#         106
  C:73A0H         LINE#         110
  C:73A0H         LINE#         111
  C:73A5H         LINE#         112
  C:73A5H         LINE#         113
  C:73A7H         LINE#         114
  C:73A7H         LINE#         115
  C:73ADH         LINE#         116
  C:73AEH         LINE#         117
  C:73B0H         LINE#         118
  C:73B0H         LINE#         119
  C:73B5H         LINE#         120
  C:73B5H         LINE#         121
  C:73B7H         LINE#         122
  C:73B7H         LINE#         123
  C:73BCH         LINE#         124
  C:73C1H         LINE#         125
  C:73C3H         LINE#         126
  C:73C3H         LINE#         127
  C:73C9H         LINE#         128
  C:73CEH         LINE#         129
  C:73D0H         LINE#         130
  C:73D0H         LINE#         131
  C:73D6H         LINE#         132
  C:73DCH         LINE#         133
  C:73DEH         LINE#         134
  C:73DEH         LINE#         135
  C:73E3H         LINE#         136
  C:73E7H         LINE#         137
  C:73E9H         LINE#         138
  C:73E9H         LINE#         139
  C:73EEH         LINE#         140
  C:73F0H         LINE#         141
  C:73F0H         LINE#         142
  C:73F8H         LINE#         143
  C:73FAH         LINE#         180
  C:73FAH         LINE#         186
  C:73FCH         LINE#         187
  C:73FCH         LINE#         188
BL51 BANKED LINKER/LOCATER V6.22.2.0                                                  11/30/2021  16:22:28  PAGE 144


  C:73FCH         LINE#         190
  C:73FFH         LINE#         191
  C:7410H         LINE#         192
  C:741FH         LINE#         193
  C:741FH         LINE#         194
  -------         ENDPROC       __LED_MODE_SET
  -------         PROC          LED_TSK
  C:940BH         LINE#         302
  C:940BH         LINE#         310
  C:940BH         LINE#         330
  C:9417H         LINE#         332
  C:941AH         LINE#         333
  C:941AH         LINE#         335
  C:941FH         LINE#         351
  -------         ENDPROC       LED_TSK
  -------         PROC          _LED_UPDATE_PORT_BY_TOWER_MODE
  -------         DO            
  X:E2CAH         SYMBOL        iport_idx
  X:E2CBH         SYMBOL        chip_port
  X:E2CCH         SYMBOL        link_mode
  -------         ENDDO         
  C:8085H         LINE#         379
  C:8085H         LINE#         387
  C:8085H         LINE#         392
  C:8098H         LINE#         393
  C:80ACH         LINE#         395
  C:80ACH         LINE#         396
  C:80ACH         LINE#         398
  C:80BAH         LINE#         399
  C:80C2H         LINE#         415
  C:80C8H         LINE#         460
  C:80C8H         LINE#         462
  C:80CFH         LINE#         464
  C:80D6H         LINE#         465
  C:80E4H         LINE#         466
  C:80E4H         LINE#         468
  C:80EBH         LINE#         469
  C:80EDH         LINE#         471
  C:80F7H         LINE#         472
  C:80F7H         LINE#         473
  C:80F7H         LINE#         475
  C:80F7H         LINE#         476
  C:80F7H         LINE#         477
  C:80F7H         LINE#         478
  C:80FFH         LINE#         479
  -------         ENDPROC       _LED_UPDATE_PORT_BY_TOWER_MODE
  -------         PROC          LED_REFRESH
  C:968EH         LINE#         481
  C:968EH         LINE#         482
  C:968EH         LINE#         483
  C:9694H         LINE#         484
  -------         ENDPROC       LED_REFRESH
  -------         PROC          LED_INIT
  C:9146H         LINE#         488
  C:9146H         LINE#         496
  C:9146H         LINE#         504
  C:914FH         LINE#         505
BL51 BANKED LINKER/LOCATER V6.22.2.0                                                  11/30/2021  16:22:28  PAGE 145


  C:9158H         LINE#         510
  C:915EH         LINE#         513
  C:9163H         LINE#         521
  -------         ENDPROC       LED_INIT
  -------         PROC          _LED_UPDATE_SYSTEM
  D:0007H         SYMBOL        mode
  C:9695H         LINE#         596
  C:9695H         LINE#         597
  C:9695H         LINE#         599
  -------         ENDPROC       _LED_UPDATE_SYSTEM
  -------         PROC          LED_1S_TIMER
  -------         DO            
  X:E463H         SYMBOL        i
  -------         ENDDO         
  C:9237H         LINE#         603
  C:9237H         LINE#         604
  C:9237H         LINE#         611
  C:924BH         LINE#         614
  C:9251H         LINE#         615
  C:9253H         LINE#         616
  -------         ENDPROC       LED_1S_TIMER
  -------         ENDMOD        LEDTSK

  -------         MODULE        LOOPDET
  C:0000H         SYMBOL        _ICE_DUMMY_
  D:0090H         PUBLIC        P1
  D:00B0H         PUBLIC        P3
  D:00A8H         PUBLIC        IE
  D:00B8H         PUBLIC        IP
  D:0098H         PUBLIC        SCON
  D:0088H         PUBLIC        TCON
  D:00C8H         PUBLIC        T2CON
  D:00D0H         PUBLIC        PSW
  -------         ENDMOD        LOOPDET

  -------         MODULE        ?C?FPADD
  C:1728H         PUBLIC        ?C?FPADD
  C:1724H         PUBLIC        ?C?FPSUB
  -------         ENDMOD        ?C?FPADD

  -------         MODULE        ?C?FPMUL
  C:1819H         PUBLIC        ?C?FPMUL
  -------         ENDMOD        ?C?FPMUL

  -------         MODULE        ?C?FPDIV
  C:1922H         PUBLIC        ?C?FPDIV
  -------         ENDMOD        ?C?FPDIV

  -------         MODULE        ?C?FCAST
  C:19C9H         PUBLIC        ?C?FCASTC
  C:19C4H         PUBLIC        ?C?FCASTI
  C:19BFH         PUBLIC        ?C?FCASTL
  -------         ENDMOD        ?C?FCAST

  -------         MODULE        ?C?CASTF
  C:19FDH         PUBLIC        ?C?CASTF
  -------         ENDMOD        ?C?CASTF
BL51 BANKED LINKER/LOCATER V6.22.2.0                                                  11/30/2021  16:22:28  PAGE 146



  -------         MODULE        ?C?COPY
  C:1B4EH         PUBLIC        ?C?COPY
  -------         ENDMOD        ?C?COPY

  -------         MODULE        ?C?SCDIV
  C:1B74H         PUBLIC        ?C?SCDIV
  -------         ENDMOD        ?C?SCDIV

  -------         MODULE        ?C?CLDPTR
  C:1B96H         PUBLIC        ?C?CLDPTR
  -------         ENDMOD        ?C?CLDPTR

  -------         MODULE        ?C?CLDOPTR
  C:1BAFH         PUBLIC        ?C?CLDOPTR
  -------         ENDMOD        ?C?CLDOPTR

  -------         MODULE        ?C?CILDOPTR
  C:1BDCH         PUBLIC        ?C?CILDOPTR
  -------         ENDMOD        ?C?CILDOPTR

  -------         MODULE        ?C?CSTPTR
  C:1C0FH         PUBLIC        ?C?CSTPTR
  -------         ENDMOD        ?C?CSTPTR

  -------         MODULE        ?C?CSTOPTR
  C:1C21H         PUBLIC        ?C?CSTOPTR
  -------         ENDMOD        ?C?CSTOPTR

  -------         MODULE        ?C?IILDX
  C:1C43H         PUBLIC        ?C?IILDX
  -------         ENDMOD        ?C?IILDX

  -------         MODULE        ?C?ILDIX
  C:1C59H         PUBLIC        ?C?ILDIX
  -------         ENDMOD        ?C?ILDIX

  -------         MODULE        ?C?ILDOPTR
  C:1C6FH         PUBLIC        ?C?ILDOPTR
  -------         ENDMOD        ?C?ILDOPTR

  -------         MODULE        ?C?ISTPTR
  C:1CA7H         PUBLIC        ?C?ISTPTR
  -------         ENDMOD        ?C?ISTPTR

  -------         MODULE        ?C?LADD
  C:1CC6H         PUBLIC        ?C?LADD
  -------         ENDMOD        ?C?LADD

  -------         MODULE        ?C?LSUB
  C:1CD3H         PUBLIC        ?C?LSUB
  -------         ENDMOD        ?C?LSUB

  -------         MODULE        ?C?LMUL
  C:1CE1H         PUBLIC        ?C?LMUL
  -------         ENDMOD        ?C?LMUL

BL51 BANKED LINKER/LOCATER V6.22.2.0                                                  11/30/2021  16:22:28  PAGE 147


  -------         MODULE        ?C?ULDIV
  C:1D6CH         PUBLIC        ?C?ULDIV
  -------         ENDMOD        ?C?ULDIV

  -------         MODULE        ?C?LAND
  C:1DFEH         PUBLIC        ?C?LAND
  -------         ENDMOD        ?C?LAND

  -------         MODULE        ?C?LOR
  C:1E0BH         PUBLIC        ?C?LOR
  -------         ENDMOD        ?C?LOR

  -------         MODULE        ?C?LNOT
  C:1E18H         PUBLIC        ?C?LNOT
  -------         ENDMOD        ?C?LNOT

  -------         MODULE        ?C?LNEG
  C:1E25H         PUBLIC        ?C?LNEG
  -------         ENDMOD        ?C?LNEG

  -------         MODULE        ?C?ULCMP
  C:1E33H         PUBLIC        ?C?ULCMP
  -------         ENDMOD        ?C?ULCMP

  -------         MODULE        ?C?ULSHR
  C:1E44H         PUBLIC        ?C?ULSHR
  -------         ENDMOD        ?C?ULSHR

  -------         MODULE        ?C?LSHL
  C:1E57H         PUBLIC        ?C?LSHL
  -------         ENDMOD        ?C?LSHL

  -------         MODULE        ?C?LLDIDATA
  C:1E6AH         PUBLIC        ?C?LLDIDATA
  -------         ENDMOD        ?C?LLDIDATA

  -------         MODULE        ?C?LLDXDATA
  C:1E76H         PUBLIC        ?C?LLDXDATA
  -------         ENDMOD        ?C?LLDXDATA

  -------         MODULE        ?C?LLDIDATA0
  C:1E82H         PUBLIC        ?C?LLDIDATA0
  -------         ENDMOD        ?C?LLDIDATA0

  -------         MODULE        ?C?LLDXDATA0
  C:1E8FH         PUBLIC        ?C?LLDXDATA0
  -------         ENDMOD        ?C?LLDXDATA0

  -------         MODULE        ?C?LLDIXDATA
  C:1EA4H         PUBLIC        ?C?LLDIXDATA
  C:1E9BH         PUBLIC        ?C?LLDIXDATA1
  C:1E9DH         PUBLIC        ?C?LLDIXDATA8
  -------         ENDMOD        ?C?LLDIXDATA

  -------         MODULE        ?C?LSTIDATA
  C:1ED0H         PUBLIC        ?C?LSTIDATA
  -------         ENDMOD        ?C?LSTIDATA
BL51 BANKED LINKER/LOCATER V6.22.2.0                                                  11/30/2021  16:22:28  PAGE 148



  -------         MODULE        ?C?LSTXDATA
  C:1EDCH         PUBLIC        ?C?LSTXDATA
  -------         ENDMOD        ?C?LSTXDATA

  -------         MODULE        ?C?LSTKXDATA
  C:1EE8H         PUBLIC        ?C?LSTKXDATA
  -------         ENDMOD        ?C?LSTKXDATA

  -------         MODULE        ?C?OFFXADD
  C:1F19H         PUBLIC        ?C?OFFXADD
  -------         ENDMOD        ?C?OFFXADD

  -------         MODULE        ?C?PLDXDATA
  C:1F25H         PUBLIC        ?C?PLDXDATA
  -------         ENDMOD        ?C?PLDXDATA

  -------         MODULE        ?C?PLDIXDATA
  C:1F2EH         PUBLIC        ?C?PLDIXDATA
  -------         ENDMOD        ?C?PLDIXDATA

  -------         MODULE        ?C?PSTXDATA
  C:1F45H         PUBLIC        ?C?PSTXDATA
  -------         ENDMOD        ?C?PSTXDATA

  -------         MODULE        ?C?CCASE
  C:1F4EH         PUBLIC        ?C?CCASE
  -------         ENDMOD        ?C?CCASE

  -------         MODULE        ?C?LCASE
  C:1F74H         PUBLIC        ?C?LCASE
  -------         ENDMOD        ?C?LCASE

  -------         MODULE        ?C?LIMUL
  C:1FAEH         PUBLIC        ?C?LIMUL
  -------         ENDMOD        ?C?LIMUL

  -------         MODULE        STRLEN
  C:9420H         PUBLIC        _STRLEN
  -------         ENDMOD        STRLEN

  -------         MODULE        ?C?MEMSET
  C:1FDBH         PUBLIC        ?C?MEMSET
  -------         ENDMOD        ?C?MEMSET

Program Size: data=137.1 xdata=1222 code=38622
LINK/LOCATE RUN COMPLETE.  0 WARNING(S),  0 ERROR(S)
